
m16_mcsfs_journal.o:     file format elf64-x86-64


Disassembly of section .text:

0000000000000000 <m16_dev_init>:
       0:	55                   	push   %rbp
       1:	48 89 e5             	mov    %rsp,%rbp
       4:	48 85 ff             	test   %rdi,%rdi
       7:	74 63                	je     6c <m16_dev_init+0x6c>
       9:	31 c0                	xor    %eax,%eax
       b:	0f 57 c0             	xorps  %xmm0,%xmm0
       e:	66 90                	xchg   %ax,%ax
      10:	0f 11 04 07          	movups %xmm0,(%rdi,%rax,1)
      14:	0f 11 44 07 10       	movups %xmm0,0x10(%rdi,%rax,1)
      19:	0f 11 44 07 20       	movups %xmm0,0x20(%rdi,%rax,1)
      1e:	0f 11 44 07 30       	movups %xmm0,0x30(%rdi,%rax,1)
      23:	0f 11 44 07 40       	movups %xmm0,0x40(%rdi,%rax,1)
      28:	0f 11 44 07 50       	movups %xmm0,0x50(%rdi,%rax,1)
      2d:	0f 11 44 07 60       	movups %xmm0,0x60(%rdi,%rax,1)
      32:	0f 11 44 07 70       	movups %xmm0,0x70(%rdi,%rax,1)
      37:	48 83 e8 80          	sub    $0xffffffffffffff80,%rax
      3b:	48 3d 00 00 01 00    	cmp    $0x10000,%rax
      41:	75 cd                	jne    10 <m16_dev_init+0x10>
      43:	0f 57 c0             	xorps  %xmm0,%xmm0
      46:	0f 11 87 00 00 01 00 	movups %xmm0,0x10000(%rdi)
      4d:	48 c7 87 10 00 01 00 	movq   $0x0,0x10010(%rdi)
      54:	00 00 00 00 
      58:	c7 87 00 00 01 00 80 	movl   $0x80,0x10000(%rdi)
      5f:	00 00 00 
      62:	c7 87 10 00 01 00 ff 	movl   $0xffffffff,0x10010(%rdi)
      69:	ff ff ff 
      6c:	5d                   	pop    %rbp
      6d:	c3                   	ret
      6e:	66 90                	xchg   %ax,%ax

0000000000000070 <m16_journal_recover>:
      70:	b8 ff ff ff ff       	mov    $0xffffffff,%eax
      75:	48 85 ff             	test   %rdi,%rdi
      78:	0f 84 fd 01 00 00    	je     27b <m16_journal_recover+0x20b>
      7e:	83 bf 00 00 01 00 02 	cmpl   $0x2,0x10000(%rdi)
      85:	0f 82 f0 01 00 00    	jb     27b <m16_journal_recover+0x20b>
      8b:	55                   	push   %rbp
      8c:	48 89 e5             	mov    %rsp,%rbp
      8f:	41 57                	push   %r15
      91:	41 56                	push   %r14
      93:	41 55                	push   %r13
      95:	41 54                	push   %r12
      97:	53                   	push   %rbx
      98:	48 81 ec 08 04 00 00 	sub    $0x408,%rsp
      9f:	0f 10 87 00 02 00 00 	movups 0x200(%rdi),%xmm0
      a6:	0f 10 8f 10 02 00 00 	movups 0x210(%rdi),%xmm1
      ad:	0f 29 85 d0 fd ff ff 	movaps %xmm0,-0x230(%rbp)
      b4:	0f 29 8d e0 fd ff ff 	movaps %xmm1,-0x220(%rbp)
      bb:	0f 10 87 20 02 00 00 	movups 0x220(%rdi),%xmm0
      c2:	0f 10 8f 30 02 00 00 	movups 0x230(%rdi),%xmm1
      c9:	0f 29 85 f0 fd ff ff 	movaps %xmm0,-0x210(%rbp)
      d0:	0f 29 8d 00 fe ff ff 	movaps %xmm1,-0x200(%rbp)
      d7:	0f 10 87 40 02 00 00 	movups 0x240(%rdi),%xmm0
      de:	0f 10 8f 50 02 00 00 	movups 0x250(%rdi),%xmm1
      e5:	0f 29 85 10 fe ff ff 	movaps %xmm0,-0x1f0(%rbp)
      ec:	0f 29 8d 20 fe ff ff 	movaps %xmm1,-0x1e0(%rbp)
      f3:	0f 10 87 60 02 00 00 	movups 0x260(%rdi),%xmm0
      fa:	0f 10 8f 70 02 00 00 	movups 0x270(%rdi),%xmm1
     101:	0f 29 85 30 fe ff ff 	movaps %xmm0,-0x1d0(%rbp)
     108:	0f 29 8d 40 fe ff ff 	movaps %xmm1,-0x1c0(%rbp)
     10f:	0f 10 87 80 02 00 00 	movups 0x280(%rdi),%xmm0
     116:	0f 10 8f 90 02 00 00 	movups 0x290(%rdi),%xmm1
     11d:	0f 29 85 50 fe ff ff 	movaps %xmm0,-0x1b0(%rbp)
     124:	0f 29 8d 60 fe ff ff 	movaps %xmm1,-0x1a0(%rbp)
     12b:	0f 10 87 a0 02 00 00 	movups 0x2a0(%rdi),%xmm0
     132:	0f 10 8f b0 02 00 00 	movups 0x2b0(%rdi),%xmm1
     139:	0f 29 85 70 fe ff ff 	movaps %xmm0,-0x190(%rbp)
     140:	0f 29 8d 80 fe ff ff 	movaps %xmm1,-0x180(%rbp)
     147:	0f 10 87 c0 02 00 00 	movups 0x2c0(%rdi),%xmm0
     14e:	0f 10 8f d0 02 00 00 	movups 0x2d0(%rdi),%xmm1
     155:	0f 29 85 90 fe ff ff 	movaps %xmm0,-0x170(%rbp)
     15c:	0f 29 8d a0 fe ff ff 	movaps %xmm1,-0x160(%rbp)
     163:	0f 10 87 e0 02 00 00 	movups 0x2e0(%rdi),%xmm0
     16a:	0f 10 8f f0 02 00 00 	movups 0x2f0(%rdi),%xmm1
     171:	0f 29 85 b0 fe ff ff 	movaps %xmm0,-0x150(%rbp)
     178:	0f 29 8d c0 fe ff ff 	movaps %xmm1,-0x140(%rbp)
     17f:	0f 10 87 00 03 00 00 	movups 0x300(%rdi),%xmm0
     186:	0f 10 8f 10 03 00 00 	movups 0x310(%rdi),%xmm1
     18d:	0f 29 85 d0 fe ff ff 	movaps %xmm0,-0x130(%rbp)
     194:	0f 29 8d e0 fe ff ff 	movaps %xmm1,-0x120(%rbp)
     19b:	0f 10 87 20 03 00 00 	movups 0x320(%rdi),%xmm0
     1a2:	0f 10 8f 30 03 00 00 	movups 0x330(%rdi),%xmm1
     1a9:	0f 29 85 f0 fe ff ff 	movaps %xmm0,-0x110(%rbp)
     1b0:	0f 29 8d 00 ff ff ff 	movaps %xmm1,-0x100(%rbp)
     1b7:	0f 10 87 40 03 00 00 	movups 0x340(%rdi),%xmm0
     1be:	0f 10 8f 50 03 00 00 	movups 0x350(%rdi),%xmm1
     1c5:	0f 29 85 10 ff ff ff 	movaps %xmm0,-0xf0(%rbp)
     1cc:	0f 29 8d 20 ff ff ff 	movaps %xmm1,-0xe0(%rbp)
     1d3:	0f 10 87 60 03 00 00 	movups 0x360(%rdi),%xmm0
     1da:	0f 10 8f 70 03 00 00 	movups 0x370(%rdi),%xmm1
     1e1:	0f 29 85 30 ff ff ff 	movaps %xmm0,-0xd0(%rbp)
     1e8:	0f 29 8d 40 ff ff ff 	movaps %xmm1,-0xc0(%rbp)
     1ef:	0f 10 87 80 03 00 00 	movups 0x380(%rdi),%xmm0
     1f6:	0f 10 8f 90 03 00 00 	movups 0x390(%rdi),%xmm1
     1fd:	0f 29 85 50 ff ff ff 	movaps %xmm0,-0xb0(%rbp)
     204:	0f 29 8d 60 ff ff ff 	movaps %xmm1,-0xa0(%rbp)
     20b:	0f 10 87 a0 03 00 00 	movups 0x3a0(%rdi),%xmm0
     212:	0f 10 8f b0 03 00 00 	movups 0x3b0(%rdi),%xmm1
     219:	0f 29 85 70 ff ff ff 	movaps %xmm0,-0x90(%rbp)
     220:	0f 29 4d 80          	movaps %xmm1,-0x80(%rbp)
     224:	0f 10 87 c0 03 00 00 	movups 0x3c0(%rdi),%xmm0
     22b:	0f 10 8f d0 03 00 00 	movups 0x3d0(%rdi),%xmm1
     232:	0f 29 45 90          	movaps %xmm0,-0x70(%rbp)
     236:	0f 29 4d a0          	movaps %xmm1,-0x60(%rbp)
     23a:	f3 0f 6f 87 e0 03 00 	movdqu 0x3e0(%rdi),%xmm0
     241:	00 
     242:	0f 10 8f f0 03 00 00 	movups 0x3f0(%rdi),%xmm1
     249:	66 0f 7f 45 b0       	movdqa %xmm0,-0x50(%rbp)
     24e:	0f 29 4d c0          	movaps %xmm1,-0x40(%rbp)
     252:	48 8b 95 d0 fd ff ff 	mov    -0x230(%rbp),%rdx
     259:	8b 8d dc fd ff ff    	mov    -0x224(%rbp),%ecx
     25f:	48 85 d2             	test   %rdx,%rdx
     262:	75 18                	jne    27c <m16_journal_recover+0x20c>
     264:	31 c0                	xor    %eax,%eax
     266:	85 c9                	test   %ecx,%ecx
     268:	75 12                	jne    27c <m16_journal_recover+0x20c>
     26a:	48 81 c4 08 04 00 00 	add    $0x408,%rsp
     271:	5b                   	pop    %rbx
     272:	41 5c                	pop    %r12
     274:	41 5d                	pop    %r13
     276:	41 5e                	pop    %r14
     278:	41 5f                	pop    %r15
     27a:	5d                   	pop    %rbp
     27b:	c3                   	ret
     27c:	49 be 31 4c 4e 52 4a 	movabs $0x4d43534a524e4c31,%r14
     283:	53 43 4d 
     286:	b8 fa ff ff ff       	mov    $0xfffffffa,%eax
     28b:	4c 39 f2             	cmp    %r14,%rdx
     28e:	75 da                	jne    26a <m16_journal_recover+0x1fa>
     290:	83 bd d8 fd ff ff 01 	cmpl   $0x1,-0x228(%rbp)
     297:	75 d1                	jne    26a <m16_journal_recover+0x1fa>
     299:	83 f9 02             	cmp    $0x2,%ecx
     29c:	75 cc                	jne    26a <m16_journal_recover+0x1fa>
     29e:	44 8b bd e4 fd ff ff 	mov    -0x21c(%rbp),%r15d
     2a5:	41 83 ff 08          	cmp    $0x8,%r15d
     2a9:	77 bf                	ja     26a <m16_journal_recover+0x1fa>
     2ab:	8b 8d e8 fd ff ff    	mov    -0x218(%rbp),%ecx
     2b1:	c7 85 e8 fd ff ff 00 	movl   $0x0,-0x218(%rbp)
     2b8:	00 00 00 
     2bb:	be c5 9d 1c 81       	mov    $0x811c9dc5,%esi
     2c0:	31 d2                	xor    %edx,%edx
     2c2:	66 66 66 66 66 2e 0f 	data16 data16 data16 data16 cs nopw 0x0(%rax,%rax,1)
     2c9:	1f 84 00 00 00 00 00 
     2d0:	44 0f b6 84 15 d0 fd 	movzbl -0x230(%rbp,%rdx,1),%r8d
     2d7:	ff ff 
     2d9:	41 31 f0             	xor    %esi,%r8d
     2dc:	41 69 f0 93 01 00 01 	imul   $0x1000193,%r8d,%esi
     2e3:	44 0f b6 84 15 d1 fd 	movzbl -0x22f(%rbp,%rdx,1),%r8d
     2ea:	ff ff 
     2ec:	41 31 f0             	xor    %esi,%r8d
     2ef:	41 69 f0 93 01 00 01 	imul   $0x1000193,%r8d,%esi
     2f6:	44 0f b6 84 15 d2 fd 	movzbl -0x22e(%rbp,%rdx,1),%r8d
     2fd:	ff ff 
     2ff:	41 31 f0             	xor    %esi,%r8d
     302:	41 69 f0 93 01 00 01 	imul   $0x1000193,%r8d,%esi
     309:	44 0f b6 84 15 d3 fd 	movzbl -0x22d(%rbp,%rdx,1),%r8d
     310:	ff ff 
     312:	41 31 f0             	xor    %esi,%r8d
     315:	41 69 f0 93 01 00 01 	imul   $0x1000193,%r8d,%esi
     31c:	48 83 c2 04          	add    $0x4,%rdx
     320:	48 81 fa 00 02 00 00 	cmp    $0x200,%rdx
     327:	75 a7                	jne    2d0 <m16_journal_recover+0x260>
     329:	39 ce                	cmp    %ecx,%esi
     32b:	0f 85 39 ff ff ff    	jne    26a <m16_journal_recover+0x1fa>
     331:	4d 85 ff             	test   %r15,%r15
     334:	0f 84 da 02 00 00    	je     614 <m16_journal_recover+0x5a4>
     33a:	45 31 e4             	xor    %r12d,%r12d
     33d:	48 8d 9d d0 fb ff ff 	lea    -0x430(%rbp),%rbx
     344:	b8 ff ff ff ff       	mov    $0xffffffff,%eax
     349:	49 83 fc 3e          	cmp    $0x3e,%r12
     34d:	0f 87 17 ff ff ff    	ja     26a <m16_journal_recover+0x1fa>
     353:	4a 8d 0c 65 02 00 00 	lea    0x2(,%r12,2),%rcx
     35a:	00 
     35b:	8b 97 00 00 01 00    	mov    0x10000(%rdi),%edx
     361:	48 39 d1             	cmp    %rdx,%rcx
     364:	0f 83 00 ff ff ff    	jae    26a <m16_journal_recover+0x1fa>
     36a:	48 c1 e1 09          	shl    $0x9,%rcx
     36e:	f3 0f 6f 04 0f       	movdqu (%rdi,%rcx,1),%xmm0
     373:	66 48 0f 7e c1       	movq   %xmm0,%rcx
     378:	4c 39 f1             	cmp    %r14,%rcx
     37b:	0f 85 9d 02 00 00    	jne    61e <m16_journal_recover+0x5ae>
     381:	66 0f 70 c8 ee       	pshufd $0xee,%xmm0,%xmm1
     386:	66 0f 7e ce          	movd   %xmm1,%esi
     38a:	83 fe 7f             	cmp    $0x7f,%esi
     38d:	0f 87 8b 02 00 00    	ja     61e <m16_journal_recover+0x5ae>
     393:	39 f2                	cmp    %esi,%edx
     395:	0f 86 83 02 00 00    	jbe    61e <m16_journal_recover+0x5ae>
     39b:	49 83 fc 3e          	cmp    $0x3e,%r12
     39f:	0f 87 c5 fe ff ff    	ja     26a <m16_journal_recover+0x1fa>
     3a5:	4a 8d 0c 65 03 00 00 	lea    0x3(,%r12,2),%rcx
     3ac:	00 
     3ad:	48 39 d1             	cmp    %rdx,%rcx
     3b0:	0f 83 b4 fe ff ff    	jae    26a <m16_journal_recover+0x1fa>
     3b6:	48 c1 e1 09          	shl    $0x9,%rcx
     3ba:	0f 10 0c 0f          	movups (%rdi,%rcx,1),%xmm1
     3be:	0f 10 54 0f 10       	movups 0x10(%rdi,%rcx,1),%xmm2
     3c3:	0f 29 8d d0 fb ff ff 	movaps %xmm1,-0x430(%rbp)
     3ca:	0f 29 95 e0 fb ff ff 	movaps %xmm2,-0x420(%rbp)
     3d1:	0f 10 4c 0f 20       	movups 0x20(%rdi,%rcx,1),%xmm1
     3d6:	0f 10 54 0f 30       	movups 0x30(%rdi,%rcx,1),%xmm2
     3db:	0f 29 8d f0 fb ff ff 	movaps %xmm1,-0x410(%rbp)
     3e2:	0f 29 95 00 fc ff ff 	movaps %xmm2,-0x400(%rbp)
     3e9:	0f 10 4c 0f 40       	movups 0x40(%rdi,%rcx,1),%xmm1
     3ee:	0f 10 54 0f 50       	movups 0x50(%rdi,%rcx,1),%xmm2
     3f3:	0f 29 8d 10 fc ff ff 	movaps %xmm1,-0x3f0(%rbp)
     3fa:	0f 29 95 20 fc ff ff 	movaps %xmm2,-0x3e0(%rbp)
     401:	0f 10 4c 0f 60       	movups 0x60(%rdi,%rcx,1),%xmm1
     406:	0f 10 54 0f 70       	movups 0x70(%rdi,%rcx,1),%xmm2
     40b:	0f 29 8d 30 fc ff ff 	movaps %xmm1,-0x3d0(%rbp)
     412:	0f 29 95 40 fc ff ff 	movaps %xmm2,-0x3c0(%rbp)
     419:	0f 10 8c 0f 80 00 00 	movups 0x80(%rdi,%rcx,1),%xmm1
     420:	00 
     421:	0f 10 94 0f 90 00 00 	movups 0x90(%rdi,%rcx,1),%xmm2
     428:	00 
     429:	0f 29 8d 50 fc ff ff 	movaps %xmm1,-0x3b0(%rbp)
     430:	0f 29 95 60 fc ff ff 	movaps %xmm2,-0x3a0(%rbp)
     437:	0f 10 8c 0f a0 00 00 	movups 0xa0(%rdi,%rcx,1),%xmm1
     43e:	00 
     43f:	0f 10 94 0f b0 00 00 	movups 0xb0(%rdi,%rcx,1),%xmm2
     446:	00 
     447:	0f 29 8d 70 fc ff ff 	movaps %xmm1,-0x390(%rbp)
     44e:	0f 29 95 80 fc ff ff 	movaps %xmm2,-0x380(%rbp)
     455:	0f 10 8c 0f c0 00 00 	movups 0xc0(%rdi,%rcx,1),%xmm1
     45c:	00 
     45d:	0f 10 94 0f d0 00 00 	movups 0xd0(%rdi,%rcx,1),%xmm2
     464:	00 
     465:	0f 29 8d 90 fc ff ff 	movaps %xmm1,-0x370(%rbp)
     46c:	0f 29 95 a0 fc ff ff 	movaps %xmm2,-0x360(%rbp)
     473:	0f 10 8c 0f e0 00 00 	movups 0xe0(%rdi,%rcx,1),%xmm1
     47a:	00 
     47b:	0f 10 94 0f f0 00 00 	movups 0xf0(%rdi,%rcx,1),%xmm2
     482:	00 
     483:	0f 29 8d b0 fc ff ff 	movaps %xmm1,-0x350(%rbp)
     48a:	0f 29 95 c0 fc ff ff 	movaps %xmm2,-0x340(%rbp)
     491:	0f 10 8c 0f 00 01 00 	movups 0x100(%rdi,%rcx,1),%xmm1
     498:	00 
     499:	0f 10 94 0f 10 01 00 	movups 0x110(%rdi,%rcx,1),%xmm2
     4a0:	00 
     4a1:	0f 29 8d d0 fc ff ff 	movaps %xmm1,-0x330(%rbp)
     4a8:	0f 29 95 e0 fc ff ff 	movaps %xmm2,-0x320(%rbp)
     4af:	0f 10 8c 0f 20 01 00 	movups 0x120(%rdi,%rcx,1),%xmm1
     4b6:	00 
     4b7:	0f 10 94 0f 30 01 00 	movups 0x130(%rdi,%rcx,1),%xmm2
     4be:	00 
     4bf:	0f 29 8d f0 fc ff ff 	movaps %xmm1,-0x310(%rbp)
     4c6:	0f 29 95 00 fd ff ff 	movaps %xmm2,-0x300(%rbp)
     4cd:	0f 10 8c 0f 40 01 00 	movups 0x140(%rdi,%rcx,1),%xmm1
     4d4:	00 
     4d5:	0f 10 94 0f 50 01 00 	movups 0x150(%rdi,%rcx,1),%xmm2
     4dc:	00 
     4dd:	0f 29 8d 10 fd ff ff 	movaps %xmm1,-0x2f0(%rbp)
     4e4:	0f 29 95 20 fd ff ff 	movaps %xmm2,-0x2e0(%rbp)
     4eb:	0f 10 8c 0f 60 01 00 	movups 0x160(%rdi,%rcx,1),%xmm1
     4f2:	00 
     4f3:	0f 10 94 0f 70 01 00 	movups 0x170(%rdi,%rcx,1),%xmm2
     4fa:	00 
     4fb:	0f 29 8d 30 fd ff ff 	movaps %xmm1,-0x2d0(%rbp)
     502:	0f 29 95 40 fd ff ff 	movaps %xmm2,-0x2c0(%rbp)
     509:	0f 10 8c 0f 80 01 00 	movups 0x180(%rdi,%rcx,1),%xmm1
     510:	00 
     511:	0f 10 94 0f 90 01 00 	movups 0x190(%rdi,%rcx,1),%xmm2
     518:	00 
     519:	0f 29 8d 50 fd ff ff 	movaps %xmm1,-0x2b0(%rbp)
     520:	0f 29 95 60 fd ff ff 	movaps %xmm2,-0x2a0(%rbp)
     527:	0f 10 8c 0f a0 01 00 	movups 0x1a0(%rdi,%rcx,1),%xmm1
     52e:	00 
     52f:	0f 10 94 0f b0 01 00 	movups 0x1b0(%rdi,%rcx,1),%xmm2
     536:	00 
     537:	0f 29 8d 70 fd ff ff 	movaps %xmm1,-0x290(%rbp)
     53e:	0f 29 95 80 fd ff ff 	movaps %xmm2,-0x280(%rbp)
     545:	0f 10 8c 0f c0 01 00 	movups 0x1c0(%rdi,%rcx,1),%xmm1
     54c:	00 
     54d:	0f 10 94 0f d0 01 00 	movups 0x1d0(%rdi,%rcx,1),%xmm2
     554:	00 
     555:	0f 29 8d 90 fd ff ff 	movaps %xmm1,-0x270(%rbp)
     55c:	0f 29 95 a0 fd ff ff 	movaps %xmm2,-0x260(%rbp)
     563:	0f 10 8c 0f e0 01 00 	movups 0x1e0(%rdi,%rcx,1),%xmm1
     56a:	00 
     56b:	0f 10 94 0f f0 01 00 	movups 0x1f0(%rdi,%rcx,1),%xmm2
     572:	00 
     573:	0f 29 8d b0 fd ff ff 	movaps %xmm1,-0x250(%rbp)
     57a:	0f 29 95 c0 fd ff ff 	movaps %xmm2,-0x240(%rbp)
     581:	b9 c5 9d 1c 81       	mov    $0x811c9dc5,%ecx
     586:	b8 03 00 00 00       	mov    $0x3,%eax
     58b:	0f 1f 44 00 00       	nopl   0x0(%rax,%rax,1)
     590:	0f b6 94 05 cd fb ff 	movzbl -0x433(%rbp,%rax,1),%edx
     597:	ff 
     598:	31 ca                	xor    %ecx,%edx
     59a:	69 ca 93 01 00 01    	imul   $0x1000193,%edx,%ecx
     5a0:	0f b6 94 05 ce fb ff 	movzbl -0x432(%rbp,%rax,1),%edx
     5a7:	ff 
     5a8:	31 ca                	xor    %ecx,%edx
     5aa:	69 ca 93 01 00 01    	imul   $0x1000193,%edx,%ecx
     5b0:	0f b6 94 05 cf fb ff 	movzbl -0x431(%rbp,%rax,1),%edx
     5b7:	ff 
     5b8:	31 ca                	xor    %ecx,%edx
     5ba:	69 ca 93 01 00 01    	imul   $0x1000193,%edx,%ecx
     5c0:	0f b6 94 05 d0 fb ff 	movzbl -0x430(%rbp,%rax,1),%edx
     5c7:	ff 
     5c8:	31 ca                	xor    %ecx,%edx
     5ca:	69 ca 93 01 00 01    	imul   $0x1000193,%edx,%ecx
     5d0:	48 83 c0 04          	add    $0x4,%rax
     5d4:	48 3d 03 02 00 00    	cmp    $0x203,%rax
     5da:	75 b4                	jne    590 <m16_journal_recover+0x520>
     5dc:	66 0f 70 c0 ff       	pshufd $0xff,%xmm0,%xmm0
     5e1:	66 0f 7e c2          	movd   %xmm0,%edx
     5e5:	b8 fa ff ff ff       	mov    $0xfffffffa,%eax
     5ea:	39 d1                	cmp    %edx,%ecx
     5ec:	0f 85 78 fc ff ff    	jne    26a <m16_journal_recover+0x1fa>
     5f2:	49 89 fd             	mov    %rdi,%r13
     5f5:	48 89 da             	mov    %rbx,%rdx
     5f8:	e8 33 00 00 00       	call   630 <m16_write_block>
     5fd:	85 c0                	test   %eax,%eax
     5ff:	0f 85 65 fc ff ff    	jne    26a <m16_journal_recover+0x1fa>
     605:	49 ff c4             	inc    %r12
     608:	4d 39 fc             	cmp    %r15,%r12
     60b:	4c 89 ef             	mov    %r13,%rdi
     60e:	0f 85 30 fd ff ff    	jne    344 <m16_journal_recover+0x2d4>
     614:	e8 57 02 00 00       	call   870 <m16_journal_clear>
     619:	e9 4c fc ff ff       	jmp    26a <m16_journal_recover+0x1fa>
     61e:	b8 fa ff ff ff       	mov    $0xfffffffa,%eax
     623:	e9 42 fc ff ff       	jmp    26a <m16_journal_recover+0x1fa>
     628:	0f 1f 84 00 00 00 00 	nopl   0x0(%rax,%rax,1)
     62f:	00 

0000000000000630 <m16_write_block>:
     630:	55                   	push   %rbp
     631:	48 89 e5             	mov    %rsp,%rbp
     634:	b8 ff ff ff ff       	mov    $0xffffffff,%eax
     639:	48 85 d2             	test   %rdx,%rdx
     63c:	0f 84 24 02 00 00    	je     866 <m16_write_block+0x236>
     642:	83 fe 7f             	cmp    $0x7f,%esi
     645:	0f 87 1b 02 00 00    	ja     866 <m16_write_block+0x236>
     64b:	39 b7 00 00 01 00    	cmp    %esi,0x10000(%rdi)
     651:	0f 86 0f 02 00 00    	jbe    866 <m16_write_block+0x236>
     657:	8b 87 10 00 01 00    	mov    0x10010(%rdi),%eax
     65d:	85 c0                	test   %eax,%eax
     65f:	74 67                	je     6c8 <m16_write_block+0x98>
     661:	7e 08                	jle    66b <m16_write_block+0x3b>
     663:	ff c8                	dec    %eax
     665:	89 87 10 00 01 00    	mov    %eax,0x10010(%rdi)
     66b:	89 f1                	mov    %esi,%ecx
     66d:	48 c1 e1 09          	shl    $0x9,%rcx
     671:	48 8d 04 39          	lea    (%rcx,%rdi,1),%rax
     675:	48 89 c6             	mov    %rax,%rsi
     678:	48 29 d6             	sub    %rdx,%rsi
     67b:	48 83 fe 1f          	cmp    $0x1f,%rsi
     67f:	77 4e                	ja     6cf <m16_write_block+0x9f>
     681:	48 8d 04 39          	lea    (%rcx,%rdi,1),%rax
     685:	48 83 c0 03          	add    $0x3,%rax
     689:	31 c9                	xor    %ecx,%ecx
     68b:	0f 1f 44 00 00       	nopl   0x0(%rax,%rax,1)
     690:	0f b6 34 0a          	movzbl (%rdx,%rcx,1),%esi
     694:	40 88 74 08 fd       	mov    %sil,-0x3(%rax,%rcx,1)
     699:	0f b6 74 0a 01       	movzbl 0x1(%rdx,%rcx,1),%esi
     69e:	40 88 74 08 fe       	mov    %sil,-0x2(%rax,%rcx,1)
     6a3:	0f b6 74 0a 02       	movzbl 0x2(%rdx,%rcx,1),%esi
     6a8:	40 88 74 08 ff       	mov    %sil,-0x1(%rax,%rcx,1)
     6ad:	0f b6 74 0a 03       	movzbl 0x3(%rdx,%rcx,1),%esi
     6b2:	40 88 34 08          	mov    %sil,(%rax,%rcx,1)
     6b6:	48 83 c1 04          	add    $0x4,%rcx
     6ba:	48 81 f9 00 02 00 00 	cmp    $0x200,%rcx
     6c1:	75 cd                	jne    690 <m16_write_block+0x60>
     6c3:	e9 95 01 00 00       	jmp    85d <m16_write_block+0x22d>
     6c8:	b8 fe ff ff ff       	mov    $0xfffffffe,%eax
     6cd:	5d                   	pop    %rbp
     6ce:	c3                   	ret
     6cf:	0f 10 02             	movups (%rdx),%xmm0
     6d2:	0f 10 4a 10          	movups 0x10(%rdx),%xmm1
     6d6:	0f 11 00             	movups %xmm0,(%rax)
     6d9:	0f 11 48 10          	movups %xmm1,0x10(%rax)
     6dd:	0f 10 42 20          	movups 0x20(%rdx),%xmm0
     6e1:	0f 10 4a 30          	movups 0x30(%rdx),%xmm1
     6e5:	0f 11 40 20          	movups %xmm0,0x20(%rax)
     6e9:	0f 11 48 30          	movups %xmm1,0x30(%rax)
     6ed:	0f 10 42 40          	movups 0x40(%rdx),%xmm0
     6f1:	0f 10 4a 50          	movups 0x50(%rdx),%xmm1
     6f5:	0f 11 40 40          	movups %xmm0,0x40(%rax)
     6f9:	0f 11 48 50          	movups %xmm1,0x50(%rax)
     6fd:	0f 10 42 60          	movups 0x60(%rdx),%xmm0
     701:	0f 10 4a 70          	movups 0x70(%rdx),%xmm1
     705:	0f 11 40 60          	movups %xmm0,0x60(%rax)
     709:	0f 11 48 70          	movups %xmm1,0x70(%rax)
     70d:	0f 10 82 80 00 00 00 	movups 0x80(%rdx),%xmm0
     714:	0f 10 8a 90 00 00 00 	movups 0x90(%rdx),%xmm1
     71b:	0f 11 80 80 00 00 00 	movups %xmm0,0x80(%rax)
     722:	0f 11 88 90 00 00 00 	movups %xmm1,0x90(%rax)
     729:	0f 10 82 a0 00 00 00 	movups 0xa0(%rdx),%xmm0
     730:	0f 10 8a b0 00 00 00 	movups 0xb0(%rdx),%xmm1
     737:	0f 11 80 a0 00 00 00 	movups %xmm0,0xa0(%rax)
     73e:	0f 11 88 b0 00 00 00 	movups %xmm1,0xb0(%rax)
     745:	0f 10 82 c0 00 00 00 	movups 0xc0(%rdx),%xmm0
     74c:	0f 10 8a d0 00 00 00 	movups 0xd0(%rdx),%xmm1
     753:	0f 11 80 c0 00 00 00 	movups %xmm0,0xc0(%rax)
     75a:	0f 11 88 d0 00 00 00 	movups %xmm1,0xd0(%rax)
     761:	0f 10 82 e0 00 00 00 	movups 0xe0(%rdx),%xmm0
     768:	0f 10 8a f0 00 00 00 	movups 0xf0(%rdx),%xmm1
     76f:	0f 11 80 e0 00 00 00 	movups %xmm0,0xe0(%rax)
     776:	0f 11 88 f0 00 00 00 	movups %xmm1,0xf0(%rax)
     77d:	0f 10 82 00 01 00 00 	movups 0x100(%rdx),%xmm0
     784:	0f 10 8a 10 01 00 00 	movups 0x110(%rdx),%xmm1
     78b:	0f 11 80 00 01 00 00 	movups %xmm0,0x100(%rax)
     792:	0f 11 88 10 01 00 00 	movups %xmm1,0x110(%rax)
     799:	0f 10 82 20 01 00 00 	movups 0x120(%rdx),%xmm0
     7a0:	0f 10 8a 30 01 00 00 	movups 0x130(%rdx),%xmm1
     7a7:	0f 11 80 20 01 00 00 	movups %xmm0,0x120(%rax)
     7ae:	0f 11 88 30 01 00 00 	movups %xmm1,0x130(%rax)
     7b5:	0f 10 82 40 01 00 00 	movups 0x140(%rdx),%xmm0
     7bc:	0f 10 8a 50 01 00 00 	movups 0x150(%rdx),%xmm1
     7c3:	0f 11 80 40 01 00 00 	movups %xmm0,0x140(%rax)
     7ca:	0f 11 88 50 01 00 00 	movups %xmm1,0x150(%rax)
     7d1:	0f 10 82 60 01 00 00 	movups 0x160(%rdx),%xmm0
     7d8:	0f 10 8a 70 01 00 00 	movups 0x170(%rdx),%xmm1
     7df:	0f 11 80 60 01 00 00 	movups %xmm0,0x160(%rax)
     7e6:	0f 11 88 70 01 00 00 	movups %xmm1,0x170(%rax)
     7ed:	0f 10 82 80 01 00 00 	movups 0x180(%rdx),%xmm0
     7f4:	0f 10 8a 90 01 00 00 	movups 0x190(%rdx),%xmm1
     7fb:	0f 11 80 80 01 00 00 	movups %xmm0,0x180(%rax)
     802:	0f 11 88 90 01 00 00 	movups %xmm1,0x190(%rax)
     809:	0f 10 82 a0 01 00 00 	movups 0x1a0(%rdx),%xmm0
     810:	0f 10 8a b0 01 00 00 	movups 0x1b0(%rdx),%xmm1
     817:	0f 11 80 a0 01 00 00 	movups %xmm0,0x1a0(%rax)
     81e:	0f 11 88 b0 01 00 00 	movups %xmm1,0x1b0(%rax)
     825:	0f 10 82 c0 01 00 00 	movups 0x1c0(%rdx),%xmm0
     82c:	0f 10 8a d0 01 00 00 	movups 0x1d0(%rdx),%xmm1
     833:	0f 11 80 c0 01 00 00 	movups %xmm0,0x1c0(%rax)
     83a:	0f 11 88 d0 01 00 00 	movups %xmm1,0x1d0(%rax)
     841:	0f 10 82 e0 01 00 00 	movups 0x1e0(%rdx),%xmm0
     848:	0f 10 8a f0 01 00 00 	movups 0x1f0(%rdx),%xmm1
     84f:	0f 11 80 e0 01 00 00 	movups %xmm0,0x1e0(%rax)
     856:	0f 11 88 f0 01 00 00 	movups %xmm1,0x1f0(%rax)
     85d:	48 ff 87 08 00 01 00 	incq   0x10008(%rdi)
     864:	31 c0                	xor    %eax,%eax
     866:	5d                   	pop    %rbp
     867:	c3                   	ret
     868:	0f 1f 84 00 00 00 00 	nopl   0x0(%rax,%rax,1)
     86f:	00 

0000000000000870 <m16_journal_clear>:
     870:	55                   	push   %rbp
     871:	48 89 e5             	mov    %rsp,%rbp
     874:	b8 ff ff ff ff       	mov    $0xffffffff,%eax
     879:	83 bf 00 00 01 00 02 	cmpl   $0x2,0x10000(%rdi)
     880:	0f 82 04 01 00 00    	jb     98a <m16_journal_clear+0x11a>
     886:	8b 87 10 00 01 00    	mov    0x10010(%rdi),%eax
     88c:	85 c0                	test   %eax,%eax
     88e:	0f 84 f8 00 00 00    	je     98c <m16_journal_clear+0x11c>
     894:	7e 08                	jle    89e <m16_journal_clear+0x2e>
     896:	ff c8                	dec    %eax
     898:	89 87 10 00 01 00    	mov    %eax,0x10010(%rdi)
     89e:	0f 57 c0             	xorps  %xmm0,%xmm0
     8a1:	0f 11 87 00 02 00 00 	movups %xmm0,0x200(%rdi)
     8a8:	0f 11 87 10 02 00 00 	movups %xmm0,0x210(%rdi)
     8af:	0f 11 87 20 02 00 00 	movups %xmm0,0x220(%rdi)
     8b6:	0f 11 87 30 02 00 00 	movups %xmm0,0x230(%rdi)
     8bd:	0f 11 87 40 02 00 00 	movups %xmm0,0x240(%rdi)
     8c4:	0f 11 87 50 02 00 00 	movups %xmm0,0x250(%rdi)
     8cb:	0f 11 87 60 02 00 00 	movups %xmm0,0x260(%rdi)
     8d2:	0f 11 87 70 02 00 00 	movups %xmm0,0x270(%rdi)
     8d9:	0f 11 87 80 02 00 00 	movups %xmm0,0x280(%rdi)
     8e0:	0f 11 87 90 02 00 00 	movups %xmm0,0x290(%rdi)
     8e7:	0f 11 87 a0 02 00 00 	movups %xmm0,0x2a0(%rdi)
     8ee:	0f 11 87 b0 02 00 00 	movups %xmm0,0x2b0(%rdi)
     8f5:	0f 11 87 c0 02 00 00 	movups %xmm0,0x2c0(%rdi)
     8fc:	0f 11 87 d0 02 00 00 	movups %xmm0,0x2d0(%rdi)
     903:	0f 11 87 e0 02 00 00 	movups %xmm0,0x2e0(%rdi)
     90a:	0f 11 87 f0 02 00 00 	movups %xmm0,0x2f0(%rdi)
     911:	0f 11 87 00 03 00 00 	movups %xmm0,0x300(%rdi)
     918:	0f 11 87 10 03 00 00 	movups %xmm0,0x310(%rdi)
     91f:	0f 11 87 20 03 00 00 	movups %xmm0,0x320(%rdi)
     926:	0f 11 87 30 03 00 00 	movups %xmm0,0x330(%rdi)
     92d:	0f 11 87 40 03 00 00 	movups %xmm0,0x340(%rdi)
     934:	0f 11 87 50 03 00 00 	movups %xmm0,0x350(%rdi)
     93b:	0f 11 87 60 03 00 00 	movups %xmm0,0x360(%rdi)
     942:	0f 11 87 70 03 00 00 	movups %xmm0,0x370(%rdi)
     949:	0f 11 87 80 03 00 00 	movups %xmm0,0x380(%rdi)
     950:	0f 11 87 90 03 00 00 	movups %xmm0,0x390(%rdi)
     957:	0f 11 87 a0 03 00 00 	movups %xmm0,0x3a0(%rdi)
     95e:	0f 11 87 b0 03 00 00 	movups %xmm0,0x3b0(%rdi)
     965:	0f 11 87 c0 03 00 00 	movups %xmm0,0x3c0(%rdi)
     96c:	0f 11 87 d0 03 00 00 	movups %xmm0,0x3d0(%rdi)
     973:	0f 11 87 e0 03 00 00 	movups %xmm0,0x3e0(%rdi)
     97a:	0f 11 87 f0 03 00 00 	movups %xmm0,0x3f0(%rdi)
     981:	48 ff 87 08 00 01 00 	incq   0x10008(%rdi)
     988:	31 c0                	xor    %eax,%eax
     98a:	5d                   	pop    %rbp
     98b:	c3                   	ret
     98c:	b8 fe ff ff ff       	mov    $0xfffffffe,%eax
     991:	5d                   	pop    %rbp
     992:	c3                   	ret
     993:	66 66 66 66 2e 0f 1f 	data16 data16 data16 cs nopw 0x0(%rax,%rax,1)
     99a:	84 00 00 00 00 00 

00000000000009a0 <m16_format>:
     9a0:	48 85 ff             	test   %rdi,%rdi
     9a3:	0f 84 af 02 00 00    	je     c58 <m16_format+0x2b8>
     9a9:	b8 70 00 00 00       	mov    $0x70,%eax
     9ae:	0f 57 c0             	xorps  %xmm0,%xmm0
     9b1:	66 66 66 66 66 66 2e 	data16 data16 data16 data16 data16 cs nopw 0x0(%rax,%rax,1)
     9b8:	0f 1f 84 00 00 00 00 
     9bf:	00 
     9c0:	0f 11 44 07 90       	movups %xmm0,-0x70(%rdi,%rax,1)
     9c5:	0f 11 44 07 a0       	movups %xmm0,-0x60(%rdi,%rax,1)
     9ca:	0f 11 44 07 b0       	movups %xmm0,-0x50(%rdi,%rax,1)
     9cf:	0f 11 44 07 c0       	movups %xmm0,-0x40(%rdi,%rax,1)
     9d4:	0f 11 44 07 d0       	movups %xmm0,-0x30(%rdi,%rax,1)
     9d9:	0f 11 44 07 e0       	movups %xmm0,-0x20(%rdi,%rax,1)
     9de:	0f 11 44 07 f0       	movups %xmm0,-0x10(%rdi,%rax,1)
     9e3:	0f 11 04 07          	movups %xmm0,(%rdi,%rax,1)
     9e7:	48 83 e8 80          	sub    $0xffffffffffffff80,%rax
     9eb:	48 3d 70 00 01 00    	cmp    $0x10070,%rax
     9f1:	75 cd                	jne    9c0 <m16_format+0x20>
     9f3:	55                   	push   %rbp
     9f4:	48 89 e5             	mov    %rsp,%rbp
     9f7:	53                   	push   %rbx
     9f8:	48 81 ec 38 0c 00 00 	sub    $0xc38,%rsp
     9ff:	0f 57 c0             	xorps  %xmm0,%xmm0
     a02:	0f 29 45 c0          	movaps %xmm0,-0x40(%rbp)
     a06:	0f 29 45 d0          	movaps %xmm0,-0x30(%rbp)
     a0a:	0f 29 45 e0          	movaps %xmm0,-0x20(%rbp)
     a0e:	8b 87 00 00 01 00    	mov    0x10000(%rdi),%eax
     a14:	89 45 c0             	mov    %eax,-0x40(%rbp)
     a17:	0f 28 05 00 00 00 00 	movaps 0x0(%rip),%xmm0        # a1e <m16_format+0x7e>
			a1a: R_X86_64_PC32	.LCPI4_0-0x4
     a1e:	0f 11 45 c4          	movups %xmm0,-0x3c(%rbp)
     a22:	0f 28 05 00 00 00 00 	movaps 0x0(%rip),%xmm0        # a29 <m16_format+0x89>
			a25: R_X86_64_PC32	.LCPI4_1-0x4
     a29:	0f 11 45 d4          	movups %xmm0,-0x2c(%rbp)
     a2d:	c7 45 e4 01 00 00 00 	movl   $0x1,-0x1c(%rbp)
     a34:	85 c0                	test   %eax,%eax
     a36:	0f 84 4d 0e 00 00    	je     1889 <m16_format+0xee9>
     a3c:	8b 87 10 00 01 00    	mov    0x10010(%rdi),%eax
     a42:	85 c0                	test   %eax,%eax
     a44:	0f 84 46 0e 00 00    	je     1890 <m16_format+0xef0>
     a4a:	7e 08                	jle    a54 <m16_format+0xb4>
     a4c:	ff c8                	dec    %eax
     a4e:	89 87 10 00 01 00    	mov    %eax,0x10010(%rdi)
     a54:	0f 28 45 c0          	movaps -0x40(%rbp),%xmm0
     a58:	0f 28 0d 00 00 00 00 	movaps 0x0(%rip),%xmm1        # a5f <m16_format+0xbf>
			a5b: R_X86_64_PC32	.LCPI4_2-0x4
     a5f:	0f 11 0f             	movups %xmm1,(%rdi)
     a62:	0f 11 47 10          	movups %xmm0,0x10(%rdi)
     a66:	0f 28 45 d0          	movaps -0x30(%rbp),%xmm0
     a6a:	0f 28 4d e0          	movaps -0x20(%rbp),%xmm1
     a6e:	0f 11 47 20          	movups %xmm0,0x20(%rdi)
     a72:	0f 11 4f 30          	movups %xmm1,0x30(%rdi)
     a76:	0f 57 c0             	xorps  %xmm0,%xmm0
     a79:	0f 11 47 40          	movups %xmm0,0x40(%rdi)
     a7d:	0f 11 47 50          	movups %xmm0,0x50(%rdi)
     a81:	0f 11 47 60          	movups %xmm0,0x60(%rdi)
     a85:	0f 11 47 70          	movups %xmm0,0x70(%rdi)
     a89:	0f 11 87 80 00 00 00 	movups %xmm0,0x80(%rdi)
     a90:	0f 11 87 90 00 00 00 	movups %xmm0,0x90(%rdi)
     a97:	0f 11 87 a0 00 00 00 	movups %xmm0,0xa0(%rdi)
     a9e:	0f 11 87 b0 00 00 00 	movups %xmm0,0xb0(%rdi)
     aa5:	0f 11 87 c0 00 00 00 	movups %xmm0,0xc0(%rdi)
     aac:	0f 11 87 d0 00 00 00 	movups %xmm0,0xd0(%rdi)
     ab3:	0f 11 87 e0 00 00 00 	movups %xmm0,0xe0(%rdi)
     aba:	0f 11 87 f0 00 00 00 	movups %xmm0,0xf0(%rdi)
     ac1:	0f 11 87 00 01 00 00 	movups %xmm0,0x100(%rdi)
     ac8:	0f 11 87 10 01 00 00 	movups %xmm0,0x110(%rdi)
     acf:	0f 11 87 20 01 00 00 	movups %xmm0,0x120(%rdi)
     ad6:	0f 11 87 30 01 00 00 	movups %xmm0,0x130(%rdi)
     add:	0f 11 87 40 01 00 00 	movups %xmm0,0x140(%rdi)
     ae4:	0f 11 87 50 01 00 00 	movups %xmm0,0x150(%rdi)
     aeb:	0f 11 87 60 01 00 00 	movups %xmm0,0x160(%rdi)
     af2:	0f 11 87 70 01 00 00 	movups %xmm0,0x170(%rdi)
     af9:	0f 11 87 80 01 00 00 	movups %xmm0,0x180(%rdi)
     b00:	0f 11 87 90 01 00 00 	movups %xmm0,0x190(%rdi)
     b07:	0f 11 87 a0 01 00 00 	movups %xmm0,0x1a0(%rdi)
     b0e:	0f 11 87 b0 01 00 00 	movups %xmm0,0x1b0(%rdi)
     b15:	0f 11 87 c0 01 00 00 	movups %xmm0,0x1c0(%rdi)
     b1c:	0f 11 87 d0 01 00 00 	movups %xmm0,0x1d0(%rdi)
     b23:	0f 11 87 e0 01 00 00 	movups %xmm0,0x1e0(%rdi)
     b2a:	0f 11 87 f0 01 00 00 	movups %xmm0,0x1f0(%rdi)
     b31:	48 ff 87 08 00 01 00 	incq   0x10008(%rdi)
     b38:	0f 29 85 c0 fd ff ff 	movaps %xmm0,-0x240(%rbp)
     b3f:	0f 29 85 d0 fd ff ff 	movaps %xmm0,-0x230(%rbp)
     b46:	0f 29 85 e0 fd ff ff 	movaps %xmm0,-0x220(%rbp)
     b4d:	0f 29 85 f0 fd ff ff 	movaps %xmm0,-0x210(%rbp)
     b54:	0f 29 85 00 fe ff ff 	movaps %xmm0,-0x200(%rbp)
     b5b:	0f 29 85 10 fe ff ff 	movaps %xmm0,-0x1f0(%rbp)
     b62:	0f 29 85 20 fe ff ff 	movaps %xmm0,-0x1e0(%rbp)
     b69:	0f 29 85 30 fe ff ff 	movaps %xmm0,-0x1d0(%rbp)
     b70:	0f 29 85 40 fe ff ff 	movaps %xmm0,-0x1c0(%rbp)
     b77:	0f 29 85 50 fe ff ff 	movaps %xmm0,-0x1b0(%rbp)
     b7e:	0f 29 85 60 fe ff ff 	movaps %xmm0,-0x1a0(%rbp)
     b85:	0f 29 85 70 fe ff ff 	movaps %xmm0,-0x190(%rbp)
     b8c:	0f 29 85 80 fe ff ff 	movaps %xmm0,-0x180(%rbp)
     b93:	0f 29 85 90 fe ff ff 	movaps %xmm0,-0x170(%rbp)
     b9a:	0f 29 85 a0 fe ff ff 	movaps %xmm0,-0x160(%rbp)
     ba1:	0f 29 85 b0 fe ff ff 	movaps %xmm0,-0x150(%rbp)
     ba8:	0f 29 85 c0 fe ff ff 	movaps %xmm0,-0x140(%rbp)
     baf:	0f 29 85 d0 fe ff ff 	movaps %xmm0,-0x130(%rbp)
     bb6:	0f 29 85 e0 fe ff ff 	movaps %xmm0,-0x120(%rbp)
     bbd:	0f 29 85 f0 fe ff ff 	movaps %xmm0,-0x110(%rbp)
     bc4:	0f 29 85 00 ff ff ff 	movaps %xmm0,-0x100(%rbp)
     bcb:	0f 29 85 10 ff ff ff 	movaps %xmm0,-0xf0(%rbp)
     bd2:	0f 29 85 20 ff ff ff 	movaps %xmm0,-0xe0(%rbp)
     bd9:	0f 29 85 30 ff ff ff 	movaps %xmm0,-0xd0(%rbp)
     be0:	0f 29 85 40 ff ff ff 	movaps %xmm0,-0xc0(%rbp)
     be7:	0f 29 85 50 ff ff ff 	movaps %xmm0,-0xb0(%rbp)
     bee:	0f 29 85 60 ff ff ff 	movaps %xmm0,-0xa0(%rbp)
     bf5:	0f 29 85 70 ff ff ff 	movaps %xmm0,-0x90(%rbp)
     bfc:	0f 29 45 80          	movaps %xmm0,-0x80(%rbp)
     c00:	0f 29 45 90          	movaps %xmm0,-0x70(%rbp)
     c04:	0f 29 45 a0          	movaps %xmm0,-0x60(%rbp)
     c08:	0f 29 45 b0          	movaps %xmm0,-0x50(%rbp)
     c0c:	b8 01 00 00 00       	mov    $0x1,%eax
     c11:	66 66 66 66 66 66 2e 	data16 data16 data16 data16 data16 cs nopw 0x0(%rax,%rax,1)
     c18:	0f 1f 84 00 00 00 00 
     c1f:	00 
     c20:	8d 48 ff             	lea    -0x1(%rax),%ecx
     c23:	89 ca                	mov    %ecx,%edx
     c25:	c1 ea 03             	shr    $0x3,%edx
     c28:	80 e1 06             	and    $0x6,%cl
     c2b:	be 01 00 00 00       	mov    $0x1,%esi
     c30:	d3 e6                	shl    %cl,%esi
     c32:	40 08 b4 15 c0 fd ff 	or     %sil,-0x240(%rbp,%rdx,1)
     c39:	ff 
     c3a:	83 f8 19             	cmp    $0x19,%eax
     c3d:	74 1f                	je     c5e <m16_format+0x2be>
     c3f:	89 c1                	mov    %eax,%ecx
     c41:	80 e1 07             	and    $0x7,%cl
     c44:	be 01 00 00 00       	mov    $0x1,%esi
     c49:	d3 e6                	shl    %cl,%esi
     c4b:	40 08 b4 15 c0 fd ff 	or     %sil,-0x240(%rbp,%rdx,1)
     c52:	ff 
     c53:	83 c0 02             	add    $0x2,%eax
     c56:	eb c8                	jmp    c20 <m16_format+0x280>
     c58:	b8 ff ff ff ff       	mov    $0xffffffff,%eax
     c5d:	c3                   	ret
     c5e:	b8 ff ff ff ff       	mov    $0xffffffff,%eax
     c63:	83 bf 00 00 01 00 13 	cmpl   $0x13,0x10000(%rdi)
     c6a:	0f 82 25 0c 00 00    	jb     1895 <m16_format+0xef5>
     c70:	8b 8f 10 00 01 00    	mov    0x10010(%rdi),%ecx
     c76:	85 c9                	test   %ecx,%ecx
     c78:	0f 84 12 0c 00 00    	je     1890 <m16_format+0xef0>
     c7e:	7e 08                	jle    c88 <m16_format+0x2e8>
     c80:	ff c9                	dec    %ecx
     c82:	89 8f 10 00 01 00    	mov    %ecx,0x10010(%rdi)
     c88:	0f 28 05 00 00 00 00 	movaps 0x0(%rip),%xmm0        # c8f <m16_format+0x2ef>
			c8b: R_X86_64_PC32	.LCPI4_3-0x4
     c8f:	0f 11 87 00 24 00 00 	movups %xmm0,0x2400(%rdi)
     c96:	0f 57 c0             	xorps  %xmm0,%xmm0
     c99:	0f 11 87 10 24 00 00 	movups %xmm0,0x2410(%rdi)
     ca0:	0f 11 87 20 24 00 00 	movups %xmm0,0x2420(%rdi)
     ca7:	0f 11 87 30 24 00 00 	movups %xmm0,0x2430(%rdi)
     cae:	0f 11 87 40 24 00 00 	movups %xmm0,0x2440(%rdi)
     cb5:	0f 11 87 50 24 00 00 	movups %xmm0,0x2450(%rdi)
     cbc:	0f 11 87 60 24 00 00 	movups %xmm0,0x2460(%rdi)
     cc3:	0f 11 87 70 24 00 00 	movups %xmm0,0x2470(%rdi)
     cca:	0f 11 87 80 24 00 00 	movups %xmm0,0x2480(%rdi)
     cd1:	0f 11 87 90 24 00 00 	movups %xmm0,0x2490(%rdi)
     cd8:	0f 11 87 a0 24 00 00 	movups %xmm0,0x24a0(%rdi)
     cdf:	0f 11 87 b0 24 00 00 	movups %xmm0,0x24b0(%rdi)
     ce6:	0f 11 87 c0 24 00 00 	movups %xmm0,0x24c0(%rdi)
     ced:	0f 11 87 d0 24 00 00 	movups %xmm0,0x24d0(%rdi)
     cf4:	0f 11 87 e0 24 00 00 	movups %xmm0,0x24e0(%rdi)
     cfb:	0f 11 87 f0 24 00 00 	movups %xmm0,0x24f0(%rdi)
     d02:	0f 11 87 00 25 00 00 	movups %xmm0,0x2500(%rdi)
     d09:	0f 11 87 10 25 00 00 	movups %xmm0,0x2510(%rdi)
     d10:	0f 11 87 20 25 00 00 	movups %xmm0,0x2520(%rdi)
     d17:	0f 11 87 30 25 00 00 	movups %xmm0,0x2530(%rdi)
     d1e:	0f 11 87 40 25 00 00 	movups %xmm0,0x2540(%rdi)
     d25:	0f 11 87 50 25 00 00 	movups %xmm0,0x2550(%rdi)
     d2c:	0f 11 87 60 25 00 00 	movups %xmm0,0x2560(%rdi)
     d33:	0f 11 87 70 25 00 00 	movups %xmm0,0x2570(%rdi)
     d3a:	0f 11 87 80 25 00 00 	movups %xmm0,0x2580(%rdi)
     d41:	0f 11 87 90 25 00 00 	movups %xmm0,0x2590(%rdi)
     d48:	0f 11 87 a0 25 00 00 	movups %xmm0,0x25a0(%rdi)
     d4f:	0f 11 87 b0 25 00 00 	movups %xmm0,0x25b0(%rdi)
     d56:	0f 11 87 c0 25 00 00 	movups %xmm0,0x25c0(%rdi)
     d5d:	0f 11 87 d0 25 00 00 	movups %xmm0,0x25d0(%rdi)
     d64:	0f 11 87 e0 25 00 00 	movups %xmm0,0x25e0(%rdi)
     d6b:	0f 11 87 f0 25 00 00 	movups %xmm0,0x25f0(%rdi)
     d72:	48 ff 87 08 00 01 00 	incq   0x10008(%rdi)
     d79:	83 bf 00 00 01 00 14 	cmpl   $0x14,0x10000(%rdi)
     d80:	0f 82 0f 0b 00 00    	jb     1895 <m16_format+0xef5>
     d86:	8b 8f 10 00 01 00    	mov    0x10010(%rdi),%ecx
     d8c:	b8 fe ff ff ff       	mov    $0xfffffffe,%eax
     d91:	85 c9                	test   %ecx,%ecx
     d93:	0f 84 fc 0a 00 00    	je     1895 <m16_format+0xef5>
     d99:	7e 08                	jle    da3 <m16_format+0x403>
     d9b:	ff c9                	dec    %ecx
     d9d:	89 8f 10 00 01 00    	mov    %ecx,0x10010(%rdi)
     da3:	0f 28 85 c0 fd ff ff 	movaps -0x240(%rbp),%xmm0
     daa:	0f 28 8d d0 fd ff ff 	movaps -0x230(%rbp),%xmm1
     db1:	0f 11 87 00 26 00 00 	movups %xmm0,0x2600(%rdi)
     db8:	0f 11 8f 10 26 00 00 	movups %xmm1,0x2610(%rdi)
     dbf:	0f 28 85 e0 fd ff ff 	movaps -0x220(%rbp),%xmm0
     dc6:	0f 28 8d f0 fd ff ff 	movaps -0x210(%rbp),%xmm1
     dcd:	0f 11 87 20 26 00 00 	movups %xmm0,0x2620(%rdi)
     dd4:	0f 11 8f 30 26 00 00 	movups %xmm1,0x2630(%rdi)
     ddb:	0f 28 85 00 fe ff ff 	movaps -0x200(%rbp),%xmm0
     de2:	0f 28 8d 10 fe ff ff 	movaps -0x1f0(%rbp),%xmm1
     de9:	0f 11 87 40 26 00 00 	movups %xmm0,0x2640(%rdi)
     df0:	0f 11 8f 50 26 00 00 	movups %xmm1,0x2650(%rdi)
     df7:	0f 28 85 20 fe ff ff 	movaps -0x1e0(%rbp),%xmm0
     dfe:	0f 28 8d 30 fe ff ff 	movaps -0x1d0(%rbp),%xmm1
     e05:	0f 11 87 60 26 00 00 	movups %xmm0,0x2660(%rdi)
     e0c:	0f 11 8f 70 26 00 00 	movups %xmm1,0x2670(%rdi)
     e13:	0f 28 85 40 fe ff ff 	movaps -0x1c0(%rbp),%xmm0
     e1a:	0f 28 8d 50 fe ff ff 	movaps -0x1b0(%rbp),%xmm1
     e21:	0f 11 87 80 26 00 00 	movups %xmm0,0x2680(%rdi)
     e28:	0f 11 8f 90 26 00 00 	movups %xmm1,0x2690(%rdi)
     e2f:	0f 28 85 60 fe ff ff 	movaps -0x1a0(%rbp),%xmm0
     e36:	0f 28 8d 70 fe ff ff 	movaps -0x190(%rbp),%xmm1
     e3d:	0f 11 87 a0 26 00 00 	movups %xmm0,0x26a0(%rdi)
     e44:	0f 11 8f b0 26 00 00 	movups %xmm1,0x26b0(%rdi)
     e4b:	0f 28 85 80 fe ff ff 	movaps -0x180(%rbp),%xmm0
     e52:	0f 28 8d 90 fe ff ff 	movaps -0x170(%rbp),%xmm1
     e59:	0f 11 87 c0 26 00 00 	movups %xmm0,0x26c0(%rdi)
     e60:	0f 11 8f d0 26 00 00 	movups %xmm1,0x26d0(%rdi)
     e67:	0f 28 85 a0 fe ff ff 	movaps -0x160(%rbp),%xmm0
     e6e:	0f 28 8d b0 fe ff ff 	movaps -0x150(%rbp),%xmm1
     e75:	0f 11 87 e0 26 00 00 	movups %xmm0,0x26e0(%rdi)
     e7c:	0f 11 8f f0 26 00 00 	movups %xmm1,0x26f0(%rdi)
     e83:	0f 28 85 c0 fe ff ff 	movaps -0x140(%rbp),%xmm0
     e8a:	0f 28 8d d0 fe ff ff 	movaps -0x130(%rbp),%xmm1
     e91:	0f 11 87 00 27 00 00 	movups %xmm0,0x2700(%rdi)
     e98:	0f 11 8f 10 27 00 00 	movups %xmm1,0x2710(%rdi)
     e9f:	0f 28 85 e0 fe ff ff 	movaps -0x120(%rbp),%xmm0
     ea6:	0f 28 8d f0 fe ff ff 	movaps -0x110(%rbp),%xmm1
     ead:	0f 11 87 20 27 00 00 	movups %xmm0,0x2720(%rdi)
     eb4:	0f 11 8f 30 27 00 00 	movups %xmm1,0x2730(%rdi)
     ebb:	0f 28 85 00 ff ff ff 	movaps -0x100(%rbp),%xmm0
     ec2:	0f 28 8d 10 ff ff ff 	movaps -0xf0(%rbp),%xmm1
     ec9:	0f 11 87 40 27 00 00 	movups %xmm0,0x2740(%rdi)
     ed0:	0f 11 8f 50 27 00 00 	movups %xmm1,0x2750(%rdi)
     ed7:	0f 28 85 20 ff ff ff 	movaps -0xe0(%rbp),%xmm0
     ede:	0f 28 8d 30 ff ff ff 	movaps -0xd0(%rbp),%xmm1
     ee5:	0f 11 87 60 27 00 00 	movups %xmm0,0x2760(%rdi)
     eec:	0f 11 8f 70 27 00 00 	movups %xmm1,0x2770(%rdi)
     ef3:	0f 28 85 40 ff ff ff 	movaps -0xc0(%rbp),%xmm0
     efa:	0f 28 8d 50 ff ff ff 	movaps -0xb0(%rbp),%xmm1
     f01:	0f 11 87 80 27 00 00 	movups %xmm0,0x2780(%rdi)
     f08:	0f 11 8f 90 27 00 00 	movups %xmm1,0x2790(%rdi)
     f0f:	0f 28 85 60 ff ff ff 	movaps -0xa0(%rbp),%xmm0
     f16:	0f 28 8d 70 ff ff ff 	movaps -0x90(%rbp),%xmm1
     f1d:	0f 11 87 a0 27 00 00 	movups %xmm0,0x27a0(%rdi)
     f24:	0f 11 8f b0 27 00 00 	movups %xmm1,0x27b0(%rdi)
     f2b:	0f 28 45 80          	movaps -0x80(%rbp),%xmm0
     f2f:	0f 28 4d 90          	movaps -0x70(%rbp),%xmm1
     f33:	0f 11 87 c0 27 00 00 	movups %xmm0,0x27c0(%rdi)
     f3a:	0f 11 8f d0 27 00 00 	movups %xmm1,0x27d0(%rdi)
     f41:	0f 28 45 a0          	movaps -0x60(%rbp),%xmm0
     f45:	0f 28 4d b0          	movaps -0x50(%rbp),%xmm1
     f49:	0f 11 87 e0 27 00 00 	movups %xmm0,0x27e0(%rdi)
     f50:	0f 11 8f f0 27 00 00 	movups %xmm1,0x27f0(%rdi)
     f57:	48 ff 87 08 00 01 00 	incq   0x10008(%rdi)
     f5e:	b8 70 00 00 00       	mov    $0x70,%eax
     f63:	0f 57 c0             	xorps  %xmm0,%xmm0
     f66:	66 2e 0f 1f 84 00 00 	cs nopw 0x0(%rax,%rax,1)
     f6d:	00 00 00 
     f70:	0f 29 84 05 50 f5 ff 	movaps %xmm0,-0xab0(%rbp,%rax,1)
     f77:	ff 
     f78:	0f 29 84 05 60 f5 ff 	movaps %xmm0,-0xaa0(%rbp,%rax,1)
     f7f:	ff 
     f80:	0f 29 84 05 70 f5 ff 	movaps %xmm0,-0xa90(%rbp,%rax,1)
     f87:	ff 
     f88:	0f 29 84 05 80 f5 ff 	movaps %xmm0,-0xa80(%rbp,%rax,1)
     f8f:	ff 
     f90:	0f 29 84 05 90 f5 ff 	movaps %xmm0,-0xa70(%rbp,%rax,1)
     f97:	ff 
     f98:	0f 29 84 05 a0 f5 ff 	movaps %xmm0,-0xa60(%rbp,%rax,1)
     f9f:	ff 
     fa0:	0f 29 84 05 b0 f5 ff 	movaps %xmm0,-0xa50(%rbp,%rax,1)
     fa7:	ff 
     fa8:	0f 29 84 05 c0 f5 ff 	movaps %xmm0,-0xa40(%rbp,%rax,1)
     faf:	ff 
     fb0:	48 83 e8 80          	sub    $0xffffffffffffff80,%rax
     fb4:	48 3d 70 08 00 00    	cmp    $0x870,%rax
     fba:	75 b4                	jne    f70 <m16_format+0x5d0>
     fbc:	0f 28 05 00 00 00 00 	movaps 0x0(%rip),%xmm0        # fc3 <m16_format+0x623>
			fbf: R_X86_64_PC32	.LCPI4_4-0x4
     fc3:	0f 29 85 c0 f5 ff ff 	movaps %xmm0,-0xa40(%rbp)
     fca:	b8 ff ff ff ff       	mov    $0xffffffff,%eax
     fcf:	83 bf 00 00 01 00 15 	cmpl   $0x15,0x10000(%rdi)
     fd6:	0f 82 b9 08 00 00    	jb     1895 <m16_format+0xef5>
     fdc:	8b 8f 10 00 01 00    	mov    0x10010(%rdi),%ecx
     fe2:	85 c9                	test   %ecx,%ecx
     fe4:	0f 84 a6 08 00 00    	je     1890 <m16_format+0xef0>
     fea:	7e 08                	jle    ff4 <m16_format+0x654>
     fec:	ff c9                	dec    %ecx
     fee:	89 8f 10 00 01 00    	mov    %ecx,0x10010(%rdi)
     ff4:	0f 28 85 c0 f5 ff ff 	movaps -0xa40(%rbp),%xmm0
     ffb:	0f 28 8d d0 f5 ff ff 	movaps -0xa30(%rbp),%xmm1
    1002:	0f 11 87 00 28 00 00 	movups %xmm0,0x2800(%rdi)
    1009:	0f 11 8f 10 28 00 00 	movups %xmm1,0x2810(%rdi)
    1010:	0f 28 85 e0 f5 ff ff 	movaps -0xa20(%rbp),%xmm0
    1017:	0f 28 8d f0 f5 ff ff 	movaps -0xa10(%rbp),%xmm1
    101e:	0f 11 87 20 28 00 00 	movups %xmm0,0x2820(%rdi)
    1025:	0f 11 8f 30 28 00 00 	movups %xmm1,0x2830(%rdi)
    102c:	0f 28 85 00 f6 ff ff 	movaps -0xa00(%rbp),%xmm0
    1033:	0f 28 8d 10 f6 ff ff 	movaps -0x9f0(%rbp),%xmm1
    103a:	0f 11 87 40 28 00 00 	movups %xmm0,0x2840(%rdi)
    1041:	0f 11 8f 50 28 00 00 	movups %xmm1,0x2850(%rdi)
    1048:	0f 28 85 20 f6 ff ff 	movaps -0x9e0(%rbp),%xmm0
    104f:	0f 28 8d 30 f6 ff ff 	movaps -0x9d0(%rbp),%xmm1
    1056:	0f 11 87 60 28 00 00 	movups %xmm0,0x2860(%rdi)
    105d:	0f 11 8f 70 28 00 00 	movups %xmm1,0x2870(%rdi)
    1064:	0f 28 85 40 f6 ff ff 	movaps -0x9c0(%rbp),%xmm0
    106b:	0f 28 8d 50 f6 ff ff 	movaps -0x9b0(%rbp),%xmm1
    1072:	0f 11 87 80 28 00 00 	movups %xmm0,0x2880(%rdi)
    1079:	0f 11 8f 90 28 00 00 	movups %xmm1,0x2890(%rdi)
    1080:	0f 28 85 60 f6 ff ff 	movaps -0x9a0(%rbp),%xmm0
    1087:	0f 28 8d 70 f6 ff ff 	movaps -0x990(%rbp),%xmm1
    108e:	0f 11 87 a0 28 00 00 	movups %xmm0,0x28a0(%rdi)
    1095:	0f 11 8f b0 28 00 00 	movups %xmm1,0x28b0(%rdi)
    109c:	0f 28 85 80 f6 ff ff 	movaps -0x980(%rbp),%xmm0
    10a3:	0f 28 8d 90 f6 ff ff 	movaps -0x970(%rbp),%xmm1
    10aa:	0f 11 87 c0 28 00 00 	movups %xmm0,0x28c0(%rdi)
    10b1:	0f 11 8f d0 28 00 00 	movups %xmm1,0x28d0(%rdi)
    10b8:	0f 28 85 a0 f6 ff ff 	movaps -0x960(%rbp),%xmm0
    10bf:	0f 28 8d b0 f6 ff ff 	movaps -0x950(%rbp),%xmm1
    10c6:	0f 11 87 e0 28 00 00 	movups %xmm0,0x28e0(%rdi)
    10cd:	0f 11 8f f0 28 00 00 	movups %xmm1,0x28f0(%rdi)
    10d4:	0f 28 85 c0 f6 ff ff 	movaps -0x940(%rbp),%xmm0
    10db:	0f 28 8d d0 f6 ff ff 	movaps -0x930(%rbp),%xmm1
    10e2:	0f 11 87 00 29 00 00 	movups %xmm0,0x2900(%rdi)
    10e9:	0f 11 8f 10 29 00 00 	movups %xmm1,0x2910(%rdi)
    10f0:	0f 28 85 e0 f6 ff ff 	movaps -0x920(%rbp),%xmm0
    10f7:	0f 28 8d f0 f6 ff ff 	movaps -0x910(%rbp),%xmm1
    10fe:	0f 11 87 20 29 00 00 	movups %xmm0,0x2920(%rdi)
    1105:	0f 11 8f 30 29 00 00 	movups %xmm1,0x2930(%rdi)
    110c:	0f 28 85 00 f7 ff ff 	movaps -0x900(%rbp),%xmm0
    1113:	0f 28 8d 10 f7 ff ff 	movaps -0x8f0(%rbp),%xmm1
    111a:	0f 11 87 40 29 00 00 	movups %xmm0,0x2940(%rdi)
    1121:	0f 11 8f 50 29 00 00 	movups %xmm1,0x2950(%rdi)
    1128:	0f 28 85 20 f7 ff ff 	movaps -0x8e0(%rbp),%xmm0
    112f:	0f 28 8d 30 f7 ff ff 	movaps -0x8d0(%rbp),%xmm1
    1136:	0f 11 87 60 29 00 00 	movups %xmm0,0x2960(%rdi)
    113d:	0f 11 8f 70 29 00 00 	movups %xmm1,0x2970(%rdi)
    1144:	0f 28 85 40 f7 ff ff 	movaps -0x8c0(%rbp),%xmm0
    114b:	0f 28 8d 50 f7 ff ff 	movaps -0x8b0(%rbp),%xmm1
    1152:	0f 11 87 80 29 00 00 	movups %xmm0,0x2980(%rdi)
    1159:	0f 11 8f 90 29 00 00 	movups %xmm1,0x2990(%rdi)
    1160:	0f 28 85 60 f7 ff ff 	movaps -0x8a0(%rbp),%xmm0
    1167:	0f 28 8d 70 f7 ff ff 	movaps -0x890(%rbp),%xmm1
    116e:	0f 11 87 a0 29 00 00 	movups %xmm0,0x29a0(%rdi)
    1175:	0f 11 8f b0 29 00 00 	movups %xmm1,0x29b0(%rdi)
    117c:	0f 28 85 80 f7 ff ff 	movaps -0x880(%rbp),%xmm0
    1183:	0f 28 8d 90 f7 ff ff 	movaps -0x870(%rbp),%xmm1
    118a:	0f 11 87 c0 29 00 00 	movups %xmm0,0x29c0(%rdi)
    1191:	0f 11 8f d0 29 00 00 	movups %xmm1,0x29d0(%rdi)
    1198:	0f 28 85 a0 f7 ff ff 	movaps -0x860(%rbp),%xmm0
    119f:	0f 28 8d b0 f7 ff ff 	movaps -0x850(%rbp),%xmm1
    11a6:	0f 11 87 e0 29 00 00 	movups %xmm0,0x29e0(%rdi)
    11ad:	0f 11 8f f0 29 00 00 	movups %xmm1,0x29f0(%rdi)
    11b4:	48 ff 87 08 00 01 00 	incq   0x10008(%rdi)
    11bb:	83 bf 00 00 01 00 16 	cmpl   $0x16,0x10000(%rdi)
    11c2:	0f 82 cd 06 00 00    	jb     1895 <m16_format+0xef5>
    11c8:	8b 8f 10 00 01 00    	mov    0x10010(%rdi),%ecx
    11ce:	85 c9                	test   %ecx,%ecx
    11d0:	0f 84 ba 06 00 00    	je     1890 <m16_format+0xef0>
    11d6:	7e 08                	jle    11e0 <m16_format+0x840>
    11d8:	ff c9                	dec    %ecx
    11da:	89 8f 10 00 01 00    	mov    %ecx,0x10010(%rdi)
    11e0:	0f 28 85 c0 f7 ff ff 	movaps -0x840(%rbp),%xmm0
    11e7:	0f 28 8d d0 f7 ff ff 	movaps -0x830(%rbp),%xmm1
    11ee:	0f 11 87 00 2a 00 00 	movups %xmm0,0x2a00(%rdi)
    11f5:	0f 11 8f 10 2a 00 00 	movups %xmm1,0x2a10(%rdi)
    11fc:	0f 28 85 e0 f7 ff ff 	movaps -0x820(%rbp),%xmm0
    1203:	0f 28 8d f0 f7 ff ff 	movaps -0x810(%rbp),%xmm1
    120a:	0f 11 87 20 2a 00 00 	movups %xmm0,0x2a20(%rdi)
    1211:	0f 11 8f 30 2a 00 00 	movups %xmm1,0x2a30(%rdi)
    1218:	0f 28 85 00 f8 ff ff 	movaps -0x800(%rbp),%xmm0
    121f:	0f 28 8d 10 f8 ff ff 	movaps -0x7f0(%rbp),%xmm1
    1226:	0f 11 87 40 2a 00 00 	movups %xmm0,0x2a40(%rdi)
    122d:	0f 11 8f 50 2a 00 00 	movups %xmm1,0x2a50(%rdi)
    1234:	0f 28 85 20 f8 ff ff 	movaps -0x7e0(%rbp),%xmm0
    123b:	0f 28 8d 30 f8 ff ff 	movaps -0x7d0(%rbp),%xmm1
    1242:	0f 11 87 60 2a 00 00 	movups %xmm0,0x2a60(%rdi)
    1249:	0f 11 8f 70 2a 00 00 	movups %xmm1,0x2a70(%rdi)
    1250:	0f 28 85 40 f8 ff ff 	movaps -0x7c0(%rbp),%xmm0
    1257:	0f 28 8d 50 f8 ff ff 	movaps -0x7b0(%rbp),%xmm1
    125e:	0f 11 87 80 2a 00 00 	movups %xmm0,0x2a80(%rdi)
    1265:	0f 11 8f 90 2a 00 00 	movups %xmm1,0x2a90(%rdi)
    126c:	0f 28 85 60 f8 ff ff 	movaps -0x7a0(%rbp),%xmm0
    1273:	0f 28 8d 70 f8 ff ff 	movaps -0x790(%rbp),%xmm1
    127a:	0f 11 87 a0 2a 00 00 	movups %xmm0,0x2aa0(%rdi)
    1281:	0f 11 8f b0 2a 00 00 	movups %xmm1,0x2ab0(%rdi)
    1288:	0f 28 85 80 f8 ff ff 	movaps -0x780(%rbp),%xmm0
    128f:	0f 28 8d 90 f8 ff ff 	movaps -0x770(%rbp),%xmm1
    1296:	0f 11 87 c0 2a 00 00 	movups %xmm0,0x2ac0(%rdi)
    129d:	0f 11 8f d0 2a 00 00 	movups %xmm1,0x2ad0(%rdi)
    12a4:	0f 28 85 a0 f8 ff ff 	movaps -0x760(%rbp),%xmm0
    12ab:	0f 28 8d b0 f8 ff ff 	movaps -0x750(%rbp),%xmm1
    12b2:	0f 11 87 e0 2a 00 00 	movups %xmm0,0x2ae0(%rdi)
    12b9:	0f 11 8f f0 2a 00 00 	movups %xmm1,0x2af0(%rdi)
    12c0:	0f 28 85 c0 f8 ff ff 	movaps -0x740(%rbp),%xmm0
    12c7:	0f 28 8d d0 f8 ff ff 	movaps -0x730(%rbp),%xmm1
    12ce:	0f 11 87 00 2b 00 00 	movups %xmm0,0x2b00(%rdi)
    12d5:	0f 11 8f 10 2b 00 00 	movups %xmm1,0x2b10(%rdi)
    12dc:	0f 28 85 e0 f8 ff ff 	movaps -0x720(%rbp),%xmm0
    12e3:	0f 28 8d f0 f8 ff ff 	movaps -0x710(%rbp),%xmm1
    12ea:	0f 11 87 20 2b 00 00 	movups %xmm0,0x2b20(%rdi)
    12f1:	0f 11 8f 30 2b 00 00 	movups %xmm1,0x2b30(%rdi)
    12f8:	0f 28 85 00 f9 ff ff 	movaps -0x700(%rbp),%xmm0
    12ff:	0f 28 8d 10 f9 ff ff 	movaps -0x6f0(%rbp),%xmm1
    1306:	0f 11 87 40 2b 00 00 	movups %xmm0,0x2b40(%rdi)
    130d:	0f 11 8f 50 2b 00 00 	movups %xmm1,0x2b50(%rdi)
    1314:	0f 28 85 20 f9 ff ff 	movaps -0x6e0(%rbp),%xmm0
    131b:	0f 28 8d 30 f9 ff ff 	movaps -0x6d0(%rbp),%xmm1
    1322:	0f 11 87 60 2b 00 00 	movups %xmm0,0x2b60(%rdi)
    1329:	0f 11 8f 70 2b 00 00 	movups %xmm1,0x2b70(%rdi)
    1330:	0f 28 85 40 f9 ff ff 	movaps -0x6c0(%rbp),%xmm0
    1337:	0f 28 8d 50 f9 ff ff 	movaps -0x6b0(%rbp),%xmm1
    133e:	0f 11 87 80 2b 00 00 	movups %xmm0,0x2b80(%rdi)
    1345:	0f 11 8f 90 2b 00 00 	movups %xmm1,0x2b90(%rdi)
    134c:	0f 28 85 60 f9 ff ff 	movaps -0x6a0(%rbp),%xmm0
    1353:	0f 28 8d 70 f9 ff ff 	movaps -0x690(%rbp),%xmm1
    135a:	0f 11 87 a0 2b 00 00 	movups %xmm0,0x2ba0(%rdi)
    1361:	0f 11 8f b0 2b 00 00 	movups %xmm1,0x2bb0(%rdi)
    1368:	0f 28 85 80 f9 ff ff 	movaps -0x680(%rbp),%xmm0
    136f:	0f 28 8d 90 f9 ff ff 	movaps -0x670(%rbp),%xmm1
    1376:	0f 11 87 c0 2b 00 00 	movups %xmm0,0x2bc0(%rdi)
    137d:	0f 11 8f d0 2b 00 00 	movups %xmm1,0x2bd0(%rdi)
    1384:	0f 28 85 a0 f9 ff ff 	movaps -0x660(%rbp),%xmm0
    138b:	0f 28 8d b0 f9 ff ff 	movaps -0x650(%rbp),%xmm1
    1392:	0f 11 87 e0 2b 00 00 	movups %xmm0,0x2be0(%rdi)
    1399:	0f 11 8f f0 2b 00 00 	movups %xmm1,0x2bf0(%rdi)
    13a0:	48 ff 87 08 00 01 00 	incq   0x10008(%rdi)
    13a7:	83 bf 00 00 01 00 17 	cmpl   $0x17,0x10000(%rdi)
    13ae:	0f 82 e1 04 00 00    	jb     1895 <m16_format+0xef5>
    13b4:	8b 8f 10 00 01 00    	mov    0x10010(%rdi),%ecx
    13ba:	85 c9                	test   %ecx,%ecx
    13bc:	0f 84 ce 04 00 00    	je     1890 <m16_format+0xef0>
    13c2:	7e 08                	jle    13cc <m16_format+0xa2c>
    13c4:	ff c9                	dec    %ecx
    13c6:	89 8f 10 00 01 00    	mov    %ecx,0x10010(%rdi)
    13cc:	0f 28 85 c0 f9 ff ff 	movaps -0x640(%rbp),%xmm0
    13d3:	0f 28 8d d0 f9 ff ff 	movaps -0x630(%rbp),%xmm1
    13da:	0f 11 87 00 2c 00 00 	movups %xmm0,0x2c00(%rdi)
    13e1:	0f 11 8f 10 2c 00 00 	movups %xmm1,0x2c10(%rdi)
    13e8:	0f 28 85 e0 f9 ff ff 	movaps -0x620(%rbp),%xmm0
    13ef:	0f 28 8d f0 f9 ff ff 	movaps -0x610(%rbp),%xmm1
    13f6:	0f 11 87 20 2c 00 00 	movups %xmm0,0x2c20(%rdi)
    13fd:	0f 11 8f 30 2c 00 00 	movups %xmm1,0x2c30(%rdi)
    1404:	0f 28 85 00 fa ff ff 	movaps -0x600(%rbp),%xmm0
    140b:	0f 28 8d 10 fa ff ff 	movaps -0x5f0(%rbp),%xmm1
    1412:	0f 11 87 40 2c 00 00 	movups %xmm0,0x2c40(%rdi)
    1419:	0f 11 8f 50 2c 00 00 	movups %xmm1,0x2c50(%rdi)
    1420:	0f 28 85 20 fa ff ff 	movaps -0x5e0(%rbp),%xmm0
    1427:	0f 28 8d 30 fa ff ff 	movaps -0x5d0(%rbp),%xmm1
    142e:	0f 11 87 60 2c 00 00 	movups %xmm0,0x2c60(%rdi)
    1435:	0f 11 8f 70 2c 00 00 	movups %xmm1,0x2c70(%rdi)
    143c:	0f 28 85 40 fa ff ff 	movaps -0x5c0(%rbp),%xmm0
    1443:	0f 28 8d 50 fa ff ff 	movaps -0x5b0(%rbp),%xmm1
    144a:	0f 11 87 80 2c 00 00 	movups %xmm0,0x2c80(%rdi)
    1451:	0f 11 8f 90 2c 00 00 	movups %xmm1,0x2c90(%rdi)
    1458:	0f 28 85 60 fa ff ff 	movaps -0x5a0(%rbp),%xmm0
    145f:	0f 28 8d 70 fa ff ff 	movaps -0x590(%rbp),%xmm1
    1466:	0f 11 87 a0 2c 00 00 	movups %xmm0,0x2ca0(%rdi)
    146d:	0f 11 8f b0 2c 00 00 	movups %xmm1,0x2cb0(%rdi)
    1474:	0f 28 85 80 fa ff ff 	movaps -0x580(%rbp),%xmm0
    147b:	0f 28 8d 90 fa ff ff 	movaps -0x570(%rbp),%xmm1
    1482:	0f 11 87 c0 2c 00 00 	movups %xmm0,0x2cc0(%rdi)
    1489:	0f 11 8f d0 2c 00 00 	movups %xmm1,0x2cd0(%rdi)
    1490:	0f 28 85 a0 fa ff ff 	movaps -0x560(%rbp),%xmm0
    1497:	0f 28 8d b0 fa ff ff 	movaps -0x550(%rbp),%xmm1
    149e:	0f 11 87 e0 2c 00 00 	movups %xmm0,0x2ce0(%rdi)
    14a5:	0f 11 8f f0 2c 00 00 	movups %xmm1,0x2cf0(%rdi)
    14ac:	0f 28 85 c0 fa ff ff 	movaps -0x540(%rbp),%xmm0
    14b3:	0f 28 8d d0 fa ff ff 	movaps -0x530(%rbp),%xmm1
    14ba:	0f 11 87 00 2d 00 00 	movups %xmm0,0x2d00(%rdi)
    14c1:	0f 11 8f 10 2d 00 00 	movups %xmm1,0x2d10(%rdi)
    14c8:	0f 28 85 e0 fa ff ff 	movaps -0x520(%rbp),%xmm0
    14cf:	0f 28 8d f0 fa ff ff 	movaps -0x510(%rbp),%xmm1
    14d6:	0f 11 87 20 2d 00 00 	movups %xmm0,0x2d20(%rdi)
    14dd:	0f 11 8f 30 2d 00 00 	movups %xmm1,0x2d30(%rdi)
    14e4:	0f 28 85 00 fb ff ff 	movaps -0x500(%rbp),%xmm0
    14eb:	0f 28 8d 10 fb ff ff 	movaps -0x4f0(%rbp),%xmm1
    14f2:	0f 11 87 40 2d 00 00 	movups %xmm0,0x2d40(%rdi)
    14f9:	0f 11 8f 50 2d 00 00 	movups %xmm1,0x2d50(%rdi)
    1500:	0f 28 85 20 fb ff ff 	movaps -0x4e0(%rbp),%xmm0
    1507:	0f 28 8d 30 fb ff ff 	movaps -0x4d0(%rbp),%xmm1
    150e:	0f 11 87 60 2d 00 00 	movups %xmm0,0x2d60(%rdi)
    1515:	0f 11 8f 70 2d 00 00 	movups %xmm1,0x2d70(%rdi)
    151c:	0f 28 85 40 fb ff ff 	movaps -0x4c0(%rbp),%xmm0
    1523:	0f 28 8d 50 fb ff ff 	movaps -0x4b0(%rbp),%xmm1
    152a:	0f 11 87 80 2d 00 00 	movups %xmm0,0x2d80(%rdi)
    1531:	0f 11 8f 90 2d 00 00 	movups %xmm1,0x2d90(%rdi)
    1538:	0f 28 85 60 fb ff ff 	movaps -0x4a0(%rbp),%xmm0
    153f:	0f 28 8d 70 fb ff ff 	movaps -0x490(%rbp),%xmm1
    1546:	0f 11 87 a0 2d 00 00 	movups %xmm0,0x2da0(%rdi)
    154d:	0f 11 8f b0 2d 00 00 	movups %xmm1,0x2db0(%rdi)
    1554:	0f 28 85 80 fb ff ff 	movaps -0x480(%rbp),%xmm0
    155b:	0f 28 8d 90 fb ff ff 	movaps -0x470(%rbp),%xmm1
    1562:	0f 11 87 c0 2d 00 00 	movups %xmm0,0x2dc0(%rdi)
    1569:	0f 11 8f d0 2d 00 00 	movups %xmm1,0x2dd0(%rdi)
    1570:	0f 28 85 a0 fb ff ff 	movaps -0x460(%rbp),%xmm0
    1577:	0f 28 8d b0 fb ff ff 	movaps -0x450(%rbp),%xmm1
    157e:	0f 11 87 e0 2d 00 00 	movups %xmm0,0x2de0(%rdi)
    1585:	0f 11 8f f0 2d 00 00 	movups %xmm1,0x2df0(%rdi)
    158c:	48 ff 87 08 00 01 00 	incq   0x10008(%rdi)
    1593:	83 bf 00 00 01 00 18 	cmpl   $0x18,0x10000(%rdi)
    159a:	0f 82 f5 02 00 00    	jb     1895 <m16_format+0xef5>
    15a0:	8b 8f 10 00 01 00    	mov    0x10010(%rdi),%ecx
    15a6:	b8 fe ff ff ff       	mov    $0xfffffffe,%eax
    15ab:	85 c9                	test   %ecx,%ecx
    15ad:	0f 84 e2 02 00 00    	je     1895 <m16_format+0xef5>
    15b3:	7e 08                	jle    15bd <m16_format+0xc1d>
    15b5:	ff c9                	dec    %ecx
    15b7:	89 8f 10 00 01 00    	mov    %ecx,0x10010(%rdi)
    15bd:	0f 28 85 c0 fb ff ff 	movaps -0x440(%rbp),%xmm0
    15c4:	0f 28 8d d0 fb ff ff 	movaps -0x430(%rbp),%xmm1
    15cb:	0f 11 87 00 2e 00 00 	movups %xmm0,0x2e00(%rdi)
    15d2:	0f 11 8f 10 2e 00 00 	movups %xmm1,0x2e10(%rdi)
    15d9:	0f 28 85 e0 fb ff ff 	movaps -0x420(%rbp),%xmm0
    15e0:	0f 28 8d f0 fb ff ff 	movaps -0x410(%rbp),%xmm1
    15e7:	0f 11 87 20 2e 00 00 	movups %xmm0,0x2e20(%rdi)
    15ee:	0f 11 8f 30 2e 00 00 	movups %xmm1,0x2e30(%rdi)
    15f5:	0f 28 85 00 fc ff ff 	movaps -0x400(%rbp),%xmm0
    15fc:	0f 28 8d 10 fc ff ff 	movaps -0x3f0(%rbp),%xmm1
    1603:	0f 11 87 40 2e 00 00 	movups %xmm0,0x2e40(%rdi)
    160a:	0f 11 8f 50 2e 00 00 	movups %xmm1,0x2e50(%rdi)
    1611:	0f 28 85 20 fc ff ff 	movaps -0x3e0(%rbp),%xmm0
    1618:	0f 28 8d 30 fc ff ff 	movaps -0x3d0(%rbp),%xmm1
    161f:	0f 11 87 60 2e 00 00 	movups %xmm0,0x2e60(%rdi)
    1626:	0f 11 8f 70 2e 00 00 	movups %xmm1,0x2e70(%rdi)
    162d:	0f 28 85 40 fc ff ff 	movaps -0x3c0(%rbp),%xmm0
    1634:	0f 28 8d 50 fc ff ff 	movaps -0x3b0(%rbp),%xmm1
    163b:	0f 11 87 80 2e 00 00 	movups %xmm0,0x2e80(%rdi)
    1642:	0f 11 8f 90 2e 00 00 	movups %xmm1,0x2e90(%rdi)
    1649:	0f 28 85 60 fc ff ff 	movaps -0x3a0(%rbp),%xmm0
    1650:	0f 28 8d 70 fc ff ff 	movaps -0x390(%rbp),%xmm1
    1657:	0f 11 87 a0 2e 00 00 	movups %xmm0,0x2ea0(%rdi)
    165e:	0f 11 8f b0 2e 00 00 	movups %xmm1,0x2eb0(%rdi)
    1665:	0f 28 85 80 fc ff ff 	movaps -0x380(%rbp),%xmm0
    166c:	0f 28 8d 90 fc ff ff 	movaps -0x370(%rbp),%xmm1
    1673:	0f 11 87 c0 2e 00 00 	movups %xmm0,0x2ec0(%rdi)
    167a:	0f 11 8f d0 2e 00 00 	movups %xmm1,0x2ed0(%rdi)
    1681:	0f 28 85 a0 fc ff ff 	movaps -0x360(%rbp),%xmm0
    1688:	0f 28 8d b0 fc ff ff 	movaps -0x350(%rbp),%xmm1
    168f:	0f 11 87 e0 2e 00 00 	movups %xmm0,0x2ee0(%rdi)
    1696:	0f 11 8f f0 2e 00 00 	movups %xmm1,0x2ef0(%rdi)
    169d:	0f 28 85 c0 fc ff ff 	movaps -0x340(%rbp),%xmm0
    16a4:	0f 28 8d d0 fc ff ff 	movaps -0x330(%rbp),%xmm1
    16ab:	0f 11 87 00 2f 00 00 	movups %xmm0,0x2f00(%rdi)
    16b2:	0f 11 8f 10 2f 00 00 	movups %xmm1,0x2f10(%rdi)
    16b9:	0f 28 85 e0 fc ff ff 	movaps -0x320(%rbp),%xmm0
    16c0:	0f 28 8d f0 fc ff ff 	movaps -0x310(%rbp),%xmm1
    16c7:	0f 11 87 20 2f 00 00 	movups %xmm0,0x2f20(%rdi)
    16ce:	0f 11 8f 30 2f 00 00 	movups %xmm1,0x2f30(%rdi)
    16d5:	0f 28 85 00 fd ff ff 	movaps -0x300(%rbp),%xmm0
    16dc:	0f 28 8d 10 fd ff ff 	movaps -0x2f0(%rbp),%xmm1
    16e3:	0f 11 87 40 2f 00 00 	movups %xmm0,0x2f40(%rdi)
    16ea:	0f 11 8f 50 2f 00 00 	movups %xmm1,0x2f50(%rdi)
    16f1:	0f 28 85 20 fd ff ff 	movaps -0x2e0(%rbp),%xmm0
    16f8:	0f 28 8d 30 fd ff ff 	movaps -0x2d0(%rbp),%xmm1
    16ff:	0f 11 87 60 2f 00 00 	movups %xmm0,0x2f60(%rdi)
    1706:	0f 11 8f 70 2f 00 00 	movups %xmm1,0x2f70(%rdi)
    170d:	0f 28 85 40 fd ff ff 	movaps -0x2c0(%rbp),%xmm0
    1714:	0f 28 8d 50 fd ff ff 	movaps -0x2b0(%rbp),%xmm1
    171b:	0f 11 87 80 2f 00 00 	movups %xmm0,0x2f80(%rdi)
    1722:	0f 11 8f 90 2f 00 00 	movups %xmm1,0x2f90(%rdi)
    1729:	0f 28 85 60 fd ff ff 	movaps -0x2a0(%rbp),%xmm0
    1730:	0f 28 8d 70 fd ff ff 	movaps -0x290(%rbp),%xmm1
    1737:	0f 11 87 a0 2f 00 00 	movups %xmm0,0x2fa0(%rdi)
    173e:	0f 11 8f b0 2f 00 00 	movups %xmm1,0x2fb0(%rdi)
    1745:	0f 28 85 80 fd ff ff 	movaps -0x280(%rbp),%xmm0
    174c:	0f 28 8d 90 fd ff ff 	movaps -0x270(%rbp),%xmm1
    1753:	0f 11 87 c0 2f 00 00 	movups %xmm0,0x2fc0(%rdi)
    175a:	0f 11 8f d0 2f 00 00 	movups %xmm1,0x2fd0(%rdi)
    1761:	0f 28 85 a0 fd ff ff 	movaps -0x260(%rbp),%xmm0
    1768:	0f 28 8d b0 fd ff ff 	movaps -0x250(%rbp),%xmm1
    176f:	0f 11 87 e0 2f 00 00 	movups %xmm0,0x2fe0(%rdi)
    1776:	0f 11 8f f0 2f 00 00 	movups %xmm1,0x2ff0(%rdi)
    177d:	48 ff 87 08 00 01 00 	incq   0x10008(%rdi)
    1784:	0f 57 c0             	xorps  %xmm0,%xmm0
    1787:	0f 29 85 c0 f3 ff ff 	movaps %xmm0,-0xc40(%rbp)
    178e:	0f 29 85 d0 f3 ff ff 	movaps %xmm0,-0xc30(%rbp)
    1795:	0f 29 85 e0 f3 ff ff 	movaps %xmm0,-0xc20(%rbp)
    179c:	0f 29 85 f0 f3 ff ff 	movaps %xmm0,-0xc10(%rbp)
    17a3:	0f 29 85 00 f4 ff ff 	movaps %xmm0,-0xc00(%rbp)
    17aa:	0f 29 85 10 f4 ff ff 	movaps %xmm0,-0xbf0(%rbp)
    17b1:	0f 29 85 20 f4 ff ff 	movaps %xmm0,-0xbe0(%rbp)
    17b8:	0f 29 85 30 f4 ff ff 	movaps %xmm0,-0xbd0(%rbp)
    17bf:	0f 29 85 40 f4 ff ff 	movaps %xmm0,-0xbc0(%rbp)
    17c6:	0f 29 85 50 f4 ff ff 	movaps %xmm0,-0xbb0(%rbp)
    17cd:	0f 29 85 60 f4 ff ff 	movaps %xmm0,-0xba0(%rbp)
    17d4:	0f 29 85 70 f4 ff ff 	movaps %xmm0,-0xb90(%rbp)
    17db:	0f 29 85 80 f4 ff ff 	movaps %xmm0,-0xb80(%rbp)
    17e2:	0f 29 85 90 f4 ff ff 	movaps %xmm0,-0xb70(%rbp)
    17e9:	0f 29 85 a0 f4 ff ff 	movaps %xmm0,-0xb60(%rbp)
    17f0:	0f 29 85 b0 f4 ff ff 	movaps %xmm0,-0xb50(%rbp)
    17f7:	0f 29 85 c0 f4 ff ff 	movaps %xmm0,-0xb40(%rbp)
    17fe:	0f 29 85 d0 f4 ff ff 	movaps %xmm0,-0xb30(%rbp)
    1805:	0f 29 85 e0 f4 ff ff 	movaps %xmm0,-0xb20(%rbp)
    180c:	0f 29 85 f0 f4 ff ff 	movaps %xmm0,-0xb10(%rbp)
    1813:	0f 29 85 00 f5 ff ff 	movaps %xmm0,-0xb00(%rbp)
    181a:	0f 29 85 10 f5 ff ff 	movaps %xmm0,-0xaf0(%rbp)
    1821:	0f 29 85 20 f5 ff ff 	movaps %xmm0,-0xae0(%rbp)
    1828:	0f 29 85 30 f5 ff ff 	movaps %xmm0,-0xad0(%rbp)
    182f:	0f 29 85 40 f5 ff ff 	movaps %xmm0,-0xac0(%rbp)
    1836:	0f 29 85 50 f5 ff ff 	movaps %xmm0,-0xab0(%rbp)
    183d:	0f 29 85 60 f5 ff ff 	movaps %xmm0,-0xaa0(%rbp)
    1844:	0f 29 85 70 f5 ff ff 	movaps %xmm0,-0xa90(%rbp)
    184b:	0f 29 85 80 f5 ff ff 	movaps %xmm0,-0xa80(%rbp)
    1852:	0f 29 85 90 f5 ff ff 	movaps %xmm0,-0xa70(%rbp)
    1859:	0f 29 85 a0 f5 ff ff 	movaps %xmm0,-0xa60(%rbp)
    1860:	0f 29 85 b0 f5 ff ff 	movaps %xmm0,-0xa50(%rbp)
    1867:	48 8d 95 c0 f3 ff ff 	lea    -0xc40(%rbp),%rdx
    186e:	48 89 fb             	mov    %rdi,%rbx
    1871:	be 18 00 00 00       	mov    $0x18,%esi
    1876:	e8 b5 ed ff ff       	call   630 <m16_write_block>
    187b:	85 c0                	test   %eax,%eax
    187d:	75 16                	jne    1895 <m16_format+0xef5>
    187f:	48 89 df             	mov    %rbx,%rdi
    1882:	e8 e9 ef ff ff       	call   870 <m16_journal_clear>
    1887:	eb 0c                	jmp    1895 <m16_format+0xef5>
    1889:	b8 ff ff ff ff       	mov    $0xffffffff,%eax
    188e:	eb 05                	jmp    1895 <m16_format+0xef5>
    1890:	b8 fe ff ff ff       	mov    $0xfffffffe,%eax
    1895:	48 81 c4 38 0c 00 00 	add    $0xc38,%rsp
    189c:	5b                   	pop    %rbx
    189d:	5d                   	pop    %rbp
    189e:	c3                   	ret
    189f:	90                   	nop

00000000000018a0 <m16_mount>:
    18a0:	b8 ff ff ff ff       	mov    $0xffffffff,%eax
    18a5:	48 85 ff             	test   %rdi,%rdi
    18a8:	74 1f                	je     18c9 <m16_mount+0x29>
    18aa:	48 85 f6             	test   %rsi,%rsi
    18ad:	74 1a                	je     18c9 <m16_mount+0x29>
    18af:	55                   	push   %rbp
    18b0:	48 89 e5             	mov    %rsp,%rbp
    18b3:	41 56                	push   %r14
    18b5:	53                   	push   %rbx
    18b6:	48 89 fb             	mov    %rdi,%rbx
    18b9:	49 89 f6             	mov    %rsi,%r14
    18bc:	e8 00 00 00 00       	call   18c1 <m16_mount+0x21>
			18bd: R_X86_64_PLT32	m16_journal_recover-0x4
    18c1:	85 c0                	test   %eax,%eax
    18c3:	74 05                	je     18ca <m16_mount+0x2a>
    18c5:	5b                   	pop    %rbx
    18c6:	41 5e                	pop    %r14
    18c8:	5d                   	pop    %rbp
    18c9:	c3                   	ret
    18ca:	83 bb 00 00 01 00 00 	cmpl   $0x0,0x10000(%rbx)
    18d1:	b8 ff ff ff ff       	mov    $0xffffffff,%eax
    18d6:	74 ed                	je     18c5 <m16_mount+0x25>
    18d8:	4c 89 f1             	mov    %r14,%rcx
    18db:	4c 89 f0             	mov    %r14,%rax
    18de:	48 29 d8             	sub    %rbx,%rax
    18e1:	48 83 f8 1f          	cmp    $0x1f,%rax
    18e5:	77 3c                	ja     1923 <m16_mount+0x83>
    18e7:	31 c0                	xor    %eax,%eax
    18e9:	0f 1f 80 00 00 00 00 	nopl   0x0(%rax)
    18f0:	0f b6 14 03          	movzbl (%rbx,%rax,1),%edx
    18f4:	88 14 01             	mov    %dl,(%rcx,%rax,1)
    18f7:	0f b6 54 03 01       	movzbl 0x1(%rbx,%rax,1),%edx
    18fc:	88 54 01 01          	mov    %dl,0x1(%rcx,%rax,1)
    1900:	0f b6 54 03 02       	movzbl 0x2(%rbx,%rax,1),%edx
    1905:	88 54 01 02          	mov    %dl,0x2(%rcx,%rax,1)
    1909:	0f b6 54 03 03       	movzbl 0x3(%rbx,%rax,1),%edx
    190e:	88 54 01 03          	mov    %dl,0x3(%rcx,%rax,1)
    1912:	48 83 c0 04          	add    $0x4,%rax
    1916:	48 3d 00 02 00 00    	cmp    $0x200,%rax
    191c:	75 d2                	jne    18f0 <m16_mount+0x50>
    191e:	e9 8e 01 00 00       	jmp    1ab1 <m16_mount+0x211>
    1923:	0f 10 03             	movups (%rbx),%xmm0
    1926:	0f 10 4b 10          	movups 0x10(%rbx),%xmm1
    192a:	0f 11 01             	movups %xmm0,(%rcx)
    192d:	0f 11 49 10          	movups %xmm1,0x10(%rcx)
    1931:	0f 10 43 20          	movups 0x20(%rbx),%xmm0
    1935:	0f 10 4b 30          	movups 0x30(%rbx),%xmm1
    1939:	0f 11 41 20          	movups %xmm0,0x20(%rcx)
    193d:	0f 11 49 30          	movups %xmm1,0x30(%rcx)
    1941:	0f 10 43 40          	movups 0x40(%rbx),%xmm0
    1945:	0f 10 4b 50          	movups 0x50(%rbx),%xmm1
    1949:	0f 11 41 40          	movups %xmm0,0x40(%rcx)
    194d:	0f 11 49 50          	movups %xmm1,0x50(%rcx)
    1951:	0f 10 43 60          	movups 0x60(%rbx),%xmm0
    1955:	0f 10 4b 70          	movups 0x70(%rbx),%xmm1
    1959:	0f 11 41 60          	movups %xmm0,0x60(%rcx)
    195d:	0f 11 49 70          	movups %xmm1,0x70(%rcx)
    1961:	0f 10 83 80 00 00 00 	movups 0x80(%rbx),%xmm0
    1968:	0f 10 8b 90 00 00 00 	movups 0x90(%rbx),%xmm1
    196f:	0f 11 81 80 00 00 00 	movups %xmm0,0x80(%rcx)
    1976:	0f 11 89 90 00 00 00 	movups %xmm1,0x90(%rcx)
    197d:	0f 10 83 a0 00 00 00 	movups 0xa0(%rbx),%xmm0
    1984:	0f 10 8b b0 00 00 00 	movups 0xb0(%rbx),%xmm1
    198b:	0f 11 81 a0 00 00 00 	movups %xmm0,0xa0(%rcx)
    1992:	0f 11 89 b0 00 00 00 	movups %xmm1,0xb0(%rcx)
    1999:	0f 10 83 c0 00 00 00 	movups 0xc0(%rbx),%xmm0
    19a0:	0f 10 8b d0 00 00 00 	movups 0xd0(%rbx),%xmm1
    19a7:	0f 11 81 c0 00 00 00 	movups %xmm0,0xc0(%rcx)
    19ae:	0f 11 89 d0 00 00 00 	movups %xmm1,0xd0(%rcx)
    19b5:	0f 10 83 e0 00 00 00 	movups 0xe0(%rbx),%xmm0
    19bc:	0f 10 8b f0 00 00 00 	movups 0xf0(%rbx),%xmm1
    19c3:	0f 11 81 e0 00 00 00 	movups %xmm0,0xe0(%rcx)
    19ca:	0f 11 89 f0 00 00 00 	movups %xmm1,0xf0(%rcx)
    19d1:	0f 10 83 00 01 00 00 	movups 0x100(%rbx),%xmm0
    19d8:	0f 10 8b 10 01 00 00 	movups 0x110(%rbx),%xmm1
    19df:	0f 11 81 00 01 00 00 	movups %xmm0,0x100(%rcx)
    19e6:	0f 11 89 10 01 00 00 	movups %xmm1,0x110(%rcx)
    19ed:	0f 10 83 20 01 00 00 	movups 0x120(%rbx),%xmm0
    19f4:	0f 10 8b 30 01 00 00 	movups 0x130(%rbx),%xmm1
    19fb:	0f 11 81 20 01 00 00 	movups %xmm0,0x120(%rcx)
    1a02:	0f 11 89 30 01 00 00 	movups %xmm1,0x130(%rcx)
    1a09:	0f 10 83 40 01 00 00 	movups 0x140(%rbx),%xmm0
    1a10:	0f 10 8b 50 01 00 00 	movups 0x150(%rbx),%xmm1
    1a17:	0f 11 81 40 01 00 00 	movups %xmm0,0x140(%rcx)
    1a1e:	0f 11 89 50 01 00 00 	movups %xmm1,0x150(%rcx)
    1a25:	0f 10 83 60 01 00 00 	movups 0x160(%rbx),%xmm0
    1a2c:	0f 10 8b 70 01 00 00 	movups 0x170(%rbx),%xmm1
    1a33:	0f 11 81 60 01 00 00 	movups %xmm0,0x160(%rcx)
    1a3a:	0f 11 89 70 01 00 00 	movups %xmm1,0x170(%rcx)
    1a41:	0f 10 83 80 01 00 00 	movups 0x180(%rbx),%xmm0
    1a48:	0f 10 8b 90 01 00 00 	movups 0x190(%rbx),%xmm1
    1a4f:	0f 11 81 80 01 00 00 	movups %xmm0,0x180(%rcx)
    1a56:	0f 11 89 90 01 00 00 	movups %xmm1,0x190(%rcx)
    1a5d:	0f 10 83 a0 01 00 00 	movups 0x1a0(%rbx),%xmm0
    1a64:	0f 10 8b b0 01 00 00 	movups 0x1b0(%rbx),%xmm1
    1a6b:	0f 11 81 a0 01 00 00 	movups %xmm0,0x1a0(%rcx)
    1a72:	0f 11 89 b0 01 00 00 	movups %xmm1,0x1b0(%rcx)
    1a79:	0f 10 83 c0 01 00 00 	movups 0x1c0(%rbx),%xmm0
    1a80:	0f 10 8b d0 01 00 00 	movups 0x1d0(%rbx),%xmm1
    1a87:	0f 11 81 c0 01 00 00 	movups %xmm0,0x1c0(%rcx)
    1a8e:	0f 11 89 d0 01 00 00 	movups %xmm1,0x1d0(%rcx)
    1a95:	0f 10 83 e0 01 00 00 	movups 0x1e0(%rbx),%xmm0
    1a9c:	0f 10 8b f0 01 00 00 	movups 0x1f0(%rbx),%xmm1
    1aa3:	0f 11 81 e0 01 00 00 	movups %xmm0,0x1e0(%rcx)
    1aaa:	0f 11 89 f0 01 00 00 	movups %xmm1,0x1f0(%rcx)
    1ab1:	b8 fa ff ff ff       	mov    $0xfffffffa,%eax
    1ab6:	48 ba 31 4a 56 31 46 	movabs $0x4d43534631564a31,%rdx
    1abd:	53 43 4d 
    1ac0:	48 39 11             	cmp    %rdx,(%rcx)
    1ac3:	0f 85 fc fd ff ff    	jne    18c5 <m16_mount+0x25>
    1ac9:	83 79 08 01          	cmpl   $0x1,0x8(%rcx)
    1acd:	0f 85 f2 fd ff ff    	jne    18c5 <m16_mount+0x25>
    1ad3:	81 79 0c 00 02 00 00 	cmpl   $0x200,0xc(%rcx)
    1ada:	0f 85 e5 fd ff ff    	jne    18c5 <m16_mount+0x25>
    1ae0:	83 79 30 19          	cmpl   $0x19,0x30(%rcx)
    1ae4:	0f 85 db fd ff ff    	jne    18c5 <m16_mount+0x25>
    1aea:	31 c9                	xor    %ecx,%ecx
    1aec:	41 83 7e 2c 18       	cmpl   $0x18,0x2c(%r14)
    1af1:	0f 44 c1             	cmove  %ecx,%eax
    1af4:	e9 cc fd ff ff       	jmp    18c5 <m16_mount+0x25>
    1af9:	0f 1f 80 00 00 00 00 	nopl   0x0(%rax)

0000000000001b00 <m16_write_file_ex>:
    1b00:	48 85 ff             	test   %rdi,%rdi
    1b03:	0f 84 8b 01 00 00    	je     1c94 <m16_write_file_ex+0x194>
    1b09:	48 85 f6             	test   %rsi,%rsi
    1b0c:	0f 84 82 01 00 00    	je     1c94 <m16_write_file_ex+0x194>
    1b12:	48 85 d2             	test   %rdx,%rdx
    1b15:	0f 84 79 01 00 00    	je     1c94 <m16_write_file_ex+0x194>
    1b1b:	b8 f9 ff ff ff       	mov    $0xfffffff9,%eax
    1b20:	80 3e 00             	cmpb   $0x0,(%rsi)
    1b23:	0f 84 70 01 00 00    	je     1c99 <m16_write_file_ex+0x199>
    1b29:	55                   	push   %rbp
    1b2a:	48 89 e5             	mov    %rsp,%rbp
    1b2d:	41 57                	push   %r15
    1b2f:	41 56                	push   %r14
    1b31:	41 55                	push   %r13
    1b33:	41 54                	push   %r12
    1b35:	53                   	push   %rbx
    1b36:	48 81 ec 78 20 00 00 	sub    $0x2078,%rsp
    1b3d:	41 b5 01             	mov    $0x1,%r13b
    1b40:	80 7e 01 00          	cmpb   $0x0,0x1(%rsi)
    1b44:	0f 84 50 01 00 00    	je     1c9a <m16_write_file_ex+0x19a>
    1b4a:	80 7e 02 00          	cmpb   $0x0,0x2(%rsi)
    1b4e:	0f 84 51 01 00 00    	je     1ca5 <m16_write_file_ex+0x1a5>
    1b54:	80 7e 03 00          	cmpb   $0x0,0x3(%rsi)
    1b58:	0f 84 52 01 00 00    	je     1cb0 <m16_write_file_ex+0x1b0>
    1b5e:	80 7e 04 00          	cmpb   $0x0,0x4(%rsi)
    1b62:	0f 84 53 01 00 00    	je     1cbb <m16_write_file_ex+0x1bb>
    1b68:	80 7e 05 00          	cmpb   $0x0,0x5(%rsi)
    1b6c:	0f 84 57 01 00 00    	je     1cc9 <m16_write_file_ex+0x1c9>
    1b72:	80 7e 06 00          	cmpb   $0x0,0x6(%rsi)
    1b76:	0f 84 5b 01 00 00    	je     1cd7 <m16_write_file_ex+0x1d7>
    1b7c:	80 7e 07 00          	cmpb   $0x0,0x7(%rsi)
    1b80:	0f 84 5f 01 00 00    	je     1ce5 <m16_write_file_ex+0x1e5>
    1b86:	80 7e 08 00          	cmpb   $0x0,0x8(%rsi)
    1b8a:	0f 84 63 01 00 00    	je     1cf3 <m16_write_file_ex+0x1f3>
    1b90:	80 7e 09 00          	cmpb   $0x0,0x9(%rsi)
    1b94:	0f 84 67 01 00 00    	je     1d01 <m16_write_file_ex+0x201>
    1b9a:	80 7e 0a 00          	cmpb   $0x0,0xa(%rsi)
    1b9e:	0f 84 6b 01 00 00    	je     1d0f <m16_write_file_ex+0x20f>
    1ba4:	80 7e 0b 00          	cmpb   $0x0,0xb(%rsi)
    1ba8:	0f 84 6f 01 00 00    	je     1d1d <m16_write_file_ex+0x21d>
    1bae:	80 7e 0c 00          	cmpb   $0x0,0xc(%rsi)
    1bb2:	0f 84 73 01 00 00    	je     1d2b <m16_write_file_ex+0x22b>
    1bb8:	80 7e 0d 00          	cmpb   $0x0,0xd(%rsi)
    1bbc:	0f 84 77 01 00 00    	je     1d39 <m16_write_file_ex+0x239>
    1bc2:	80 7e 0e 00          	cmpb   $0x0,0xe(%rsi)
    1bc6:	0f 84 7b 01 00 00    	je     1d47 <m16_write_file_ex+0x247>
    1bcc:	80 7e 0f 00          	cmpb   $0x0,0xf(%rsi)
    1bd0:	0f 84 7f 01 00 00    	je     1d55 <m16_write_file_ex+0x255>
    1bd6:	80 7e 10 00          	cmpb   $0x0,0x10(%rsi)
    1bda:	0f 84 83 01 00 00    	je     1d63 <m16_write_file_ex+0x263>
    1be0:	80 7e 11 00          	cmpb   $0x0,0x11(%rsi)
    1be4:	0f 84 84 01 00 00    	je     1d6e <m16_write_file_ex+0x26e>
    1bea:	80 7e 12 00          	cmpb   $0x0,0x12(%rsi)
    1bee:	0f 84 85 01 00 00    	je     1d79 <m16_write_file_ex+0x279>
    1bf4:	80 7e 13 00          	cmpb   $0x0,0x13(%rsi)
    1bf8:	0f 84 86 01 00 00    	je     1d84 <m16_write_file_ex+0x284>
    1bfe:	49 89 f1             	mov    %rsi,%r9
    1c01:	80 7e 14 00          	cmpb   $0x0,0x14(%rsi)
    1c05:	0f 84 84 01 00 00    	je     1d8f <m16_write_file_ex+0x28f>
    1c0b:	41 80 79 15 00       	cmpb   $0x0,0x15(%r9)
    1c10:	0f 84 81 01 00 00    	je     1d97 <m16_write_file_ex+0x297>
    1c16:	41 80 79 16 00       	cmpb   $0x0,0x16(%r9)
    1c1b:	0f 84 7e 01 00 00    	je     1d9f <m16_write_file_ex+0x29f>
    1c21:	41 80 79 17 00       	cmpb   $0x0,0x17(%r9)
    1c26:	0f 84 7b 01 00 00    	je     1da7 <m16_write_file_ex+0x2a7>
    1c2c:	41 80 79 18 00       	cmpb   $0x0,0x18(%r9)
    1c31:	0f 84 78 01 00 00    	je     1daf <m16_write_file_ex+0x2af>
    1c37:	41 80 79 19 00       	cmpb   $0x0,0x19(%r9)
    1c3c:	0f 84 75 01 00 00    	je     1db7 <m16_write_file_ex+0x2b7>
    1c42:	41 80 79 1a 00       	cmpb   $0x0,0x1a(%r9)
    1c47:	0f 84 72 01 00 00    	je     1dbf <m16_write_file_ex+0x2bf>
    1c4d:	41 80 79 1b 00       	cmpb   $0x0,0x1b(%r9)
    1c52:	0f 84 6f 01 00 00    	je     1dc7 <m16_write_file_ex+0x2c7>
    1c58:	41 80 79 1c 00       	cmpb   $0x0,0x1c(%r9)
    1c5d:	0f 84 6c 01 00 00    	je     1dcf <m16_write_file_ex+0x2cf>
    1c63:	41 80 79 1d 00       	cmpb   $0x0,0x1d(%r9)
    1c68:	0f 84 69 01 00 00    	je     1dd7 <m16_write_file_ex+0x2d7>
    1c6e:	41 80 79 1e 00       	cmpb   $0x0,0x1e(%r9)
    1c73:	0f 84 66 01 00 00    	je     1ddf <m16_write_file_ex+0x2df>
    1c79:	41 80 79 1f 00       	cmpb   $0x0,0x1f(%r9)
    1c7e:	b8 f9 ff ff ff       	mov    $0xfffffff9,%eax
    1c83:	0f 85 8b 01 00 00    	jne    1e14 <m16_write_file_ex+0x314>
    1c89:	41 bc 1f 00 00 00    	mov    $0x1f,%r12d
    1c8f:	e9 51 01 00 00       	jmp    1de5 <m16_write_file_ex+0x2e5>
    1c94:	b8 ff ff ff ff       	mov    $0xffffffff,%eax
    1c99:	c3                   	ret
    1c9a:	41 bc 01 00 00 00    	mov    $0x1,%r12d
    1ca0:	e9 46 01 00 00       	jmp    1deb <m16_write_file_ex+0x2eb>
    1ca5:	41 bc 02 00 00 00    	mov    $0x2,%r12d
    1cab:	e9 3b 01 00 00       	jmp    1deb <m16_write_file_ex+0x2eb>
    1cb0:	41 bc 03 00 00 00    	mov    $0x3,%r12d
    1cb6:	e9 30 01 00 00       	jmp    1deb <m16_write_file_ex+0x2eb>
    1cbb:	41 bc 04 00 00 00    	mov    $0x4,%r12d
    1cc1:	45 31 ed             	xor    %r13d,%r13d
    1cc4:	e9 22 01 00 00       	jmp    1deb <m16_write_file_ex+0x2eb>
    1cc9:	41 bc 05 00 00 00    	mov    $0x5,%r12d
    1ccf:	45 31 ed             	xor    %r13d,%r13d
    1cd2:	e9 14 01 00 00       	jmp    1deb <m16_write_file_ex+0x2eb>
    1cd7:	41 bc 06 00 00 00    	mov    $0x6,%r12d
    1cdd:	45 31 ed             	xor    %r13d,%r13d
    1ce0:	e9 06 01 00 00       	jmp    1deb <m16_write_file_ex+0x2eb>
    1ce5:	41 bc 07 00 00 00    	mov    $0x7,%r12d
    1ceb:	45 31 ed             	xor    %r13d,%r13d
    1cee:	e9 f8 00 00 00       	jmp    1deb <m16_write_file_ex+0x2eb>
    1cf3:	41 bc 08 00 00 00    	mov    $0x8,%r12d
    1cf9:	45 31 ed             	xor    %r13d,%r13d
    1cfc:	e9 ea 00 00 00       	jmp    1deb <m16_write_file_ex+0x2eb>
    1d01:	41 bc 09 00 00 00    	mov    $0x9,%r12d
    1d07:	45 31 ed             	xor    %r13d,%r13d
    1d0a:	e9 dc 00 00 00       	jmp    1deb <m16_write_file_ex+0x2eb>
    1d0f:	41 bc 0a 00 00 00    	mov    $0xa,%r12d
    1d15:	45 31 ed             	xor    %r13d,%r13d
    1d18:	e9 ce 00 00 00       	jmp    1deb <m16_write_file_ex+0x2eb>
    1d1d:	41 bc 0b 00 00 00    	mov    $0xb,%r12d
    1d23:	45 31 ed             	xor    %r13d,%r13d
    1d26:	e9 c0 00 00 00       	jmp    1deb <m16_write_file_ex+0x2eb>
    1d2b:	41 bc 0c 00 00 00    	mov    $0xc,%r12d
    1d31:	45 31 ed             	xor    %r13d,%r13d
    1d34:	e9 b2 00 00 00       	jmp    1deb <m16_write_file_ex+0x2eb>
    1d39:	41 bc 0d 00 00 00    	mov    $0xd,%r12d
    1d3f:	45 31 ed             	xor    %r13d,%r13d
    1d42:	e9 a4 00 00 00       	jmp    1deb <m16_write_file_ex+0x2eb>
    1d47:	41 bc 0e 00 00 00    	mov    $0xe,%r12d
    1d4d:	45 31 ed             	xor    %r13d,%r13d
    1d50:	e9 96 00 00 00       	jmp    1deb <m16_write_file_ex+0x2eb>
    1d55:	41 bc 0f 00 00 00    	mov    $0xf,%r12d
    1d5b:	45 31 ed             	xor    %r13d,%r13d
    1d5e:	e9 88 00 00 00       	jmp    1deb <m16_write_file_ex+0x2eb>
    1d63:	41 bc 10 00 00 00    	mov    $0x10,%r12d
    1d69:	45 31 ed             	xor    %r13d,%r13d
    1d6c:	eb 7d                	jmp    1deb <m16_write_file_ex+0x2eb>
    1d6e:	41 bc 11 00 00 00    	mov    $0x11,%r12d
    1d74:	45 31 ed             	xor    %r13d,%r13d
    1d77:	eb 72                	jmp    1deb <m16_write_file_ex+0x2eb>
    1d79:	41 bc 12 00 00 00    	mov    $0x12,%r12d
    1d7f:	45 31 ed             	xor    %r13d,%r13d
    1d82:	eb 67                	jmp    1deb <m16_write_file_ex+0x2eb>
    1d84:	41 bc 13 00 00 00    	mov    $0x13,%r12d
    1d8a:	45 31 ed             	xor    %r13d,%r13d
    1d8d:	eb 5c                	jmp    1deb <m16_write_file_ex+0x2eb>
    1d8f:	41 bc 14 00 00 00    	mov    $0x14,%r12d
    1d95:	eb 4e                	jmp    1de5 <m16_write_file_ex+0x2e5>
    1d97:	41 bc 15 00 00 00    	mov    $0x15,%r12d
    1d9d:	eb 46                	jmp    1de5 <m16_write_file_ex+0x2e5>
    1d9f:	41 bc 16 00 00 00    	mov    $0x16,%r12d
    1da5:	eb 3e                	jmp    1de5 <m16_write_file_ex+0x2e5>
    1da7:	41 bc 17 00 00 00    	mov    $0x17,%r12d
    1dad:	eb 36                	jmp    1de5 <m16_write_file_ex+0x2e5>
    1daf:	41 bc 18 00 00 00    	mov    $0x18,%r12d
    1db5:	eb 2e                	jmp    1de5 <m16_write_file_ex+0x2e5>
    1db7:	41 bc 19 00 00 00    	mov    $0x19,%r12d
    1dbd:	eb 26                	jmp    1de5 <m16_write_file_ex+0x2e5>
    1dbf:	41 bc 1a 00 00 00    	mov    $0x1a,%r12d
    1dc5:	eb 1e                	jmp    1de5 <m16_write_file_ex+0x2e5>
    1dc7:	41 bc 1b 00 00 00    	mov    $0x1b,%r12d
    1dcd:	eb 16                	jmp    1de5 <m16_write_file_ex+0x2e5>
    1dcf:	41 bc 1c 00 00 00    	mov    $0x1c,%r12d
    1dd5:	eb 0e                	jmp    1de5 <m16_write_file_ex+0x2e5>
    1dd7:	41 bc 1d 00 00 00    	mov    $0x1d,%r12d
    1ddd:	eb 06                	jmp    1de5 <m16_write_file_ex+0x2e5>
    1ddf:	41 bc 1e 00 00 00    	mov    $0x1e,%r12d
    1de5:	45 31 ed             	xor    %r13d,%r13d
    1de8:	4c 89 ce             	mov    %r9,%rsi
    1deb:	81 f9 00 02 00 00    	cmp    $0x200,%ecx
    1df1:	76 07                	jbe    1dfa <m16_write_file_ex+0x2fa>
    1df3:	b8 ff ff ff ff       	mov    $0xffffffff,%eax
    1df8:	eb 1a                	jmp    1e14 <m16_write_file_ex+0x314>
    1dfa:	49 89 d7             	mov    %rdx,%r15
    1dfd:	89 4d d4             	mov    %ecx,-0x2c(%rbp)
    1e00:	48 89 75 b8          	mov    %rsi,-0x48(%rbp)
    1e04:	44 89 45 b4          	mov    %r8d,-0x4c(%rbp)
    1e08:	49 89 fe             	mov    %rdi,%r14
    1e0b:	e8 00 00 00 00       	call   1e10 <m16_write_file_ex+0x310>
			1e0c: R_X86_64_PLT32	m16_journal_recover-0x4
    1e10:	85 c0                	test   %eax,%eax
    1e12:	74 12                	je     1e26 <m16_write_file_ex+0x326>
    1e14:	48 81 c4 78 20 00 00 	add    $0x2078,%rsp
    1e1b:	5b                   	pop    %rbx
    1e1c:	41 5c                	pop    %r12
    1e1e:	41 5d                	pop    %r13
    1e20:	41 5e                	pop    %r14
    1e22:	41 5f                	pop    %r15
    1e24:	5d                   	pop    %rbp
    1e25:	c3                   	ret
    1e26:	4c 89 f7             	mov    %r14,%rdi
    1e29:	41 8b 9e 00 00 01 00 	mov    0x10000(%r14),%ebx
    1e30:	b8 ff ff ff ff       	mov    $0xffffffff,%eax
    1e35:	85 db                	test   %ebx,%ebx
    1e37:	74 db                	je     1e14 <m16_write_file_ex+0x314>
    1e39:	f3 0f 6f 07          	movdqu (%rdi),%xmm0
    1e3d:	66 48 0f 7e c1       	movq   %xmm0,%rcx
    1e42:	48 ba 31 4a 56 31 46 	movabs $0x4d43534631564a31,%rdx
    1e49:	53 43 4d 
    1e4c:	b8 fa ff ff ff       	mov    $0xfffffffa,%eax
    1e51:	48 39 d1             	cmp    %rdx,%rcx
    1e54:	75 be                	jne    1e14 <m16_write_file_ex+0x314>
    1e56:	66 0f 70 c8 ee       	pshufd $0xee,%xmm0,%xmm1
    1e5b:	66 0f 7e c9          	movd   %xmm1,%ecx
    1e5f:	83 f9 01             	cmp    $0x1,%ecx
    1e62:	75 b0                	jne    1e14 <m16_write_file_ex+0x314>
    1e64:	66 0f 70 c0 ff       	pshufd $0xff,%xmm0,%xmm0
    1e69:	66 0f 7e c1          	movd   %xmm0,%ecx
    1e6d:	81 f9 00 02 00 00    	cmp    $0x200,%ecx
    1e73:	75 9f                	jne    1e14 <m16_write_file_ex+0x314>
    1e75:	83 7f 30 19          	cmpl   $0x19,0x30(%rdi)
    1e79:	75 99                	jne    1e14 <m16_write_file_ex+0x314>
    1e7b:	f3 0f 6f 47 20       	movdqu 0x20(%rdi),%xmm0
    1e80:	66 0f 70 c0 ff       	pshufd $0xff,%xmm0,%xmm0
    1e85:	66 0f 7e c1          	movd   %xmm0,%ecx
    1e89:	83 f9 18             	cmp    $0x18,%ecx
    1e8c:	75 86                	jne    1e14 <m16_write_file_ex+0x314>
    1e8e:	b8 ff ff ff ff       	mov    $0xffffffff,%eax
    1e93:	83 fb 13             	cmp    $0x13,%ebx
    1e96:	0f 82 78 ff ff ff    	jb     1e14 <m16_write_file_ex+0x314>
    1e9c:	0f 10 57 30          	movups 0x30(%rdi),%xmm2
    1ea0:	0f 10 87 00 24 00 00 	movups 0x2400(%rdi),%xmm0
    1ea7:	0f 10 8f 10 24 00 00 	movups 0x2410(%rdi),%xmm1
    1eae:	0f 29 85 a0 f7 ff ff 	movaps %xmm0,-0x860(%rbp)
    1eb5:	0f 29 8d b0 f7 ff ff 	movaps %xmm1,-0x850(%rbp)
    1ebc:	0f 10 87 20 24 00 00 	movups 0x2420(%rdi),%xmm0
    1ec3:	0f 10 8f 30 24 00 00 	movups 0x2430(%rdi),%xmm1
    1eca:	0f 29 85 c0 f7 ff ff 	movaps %xmm0,-0x840(%rbp)
    1ed1:	0f 29 8d d0 f7 ff ff 	movaps %xmm1,-0x830(%rbp)
    1ed8:	0f 10 87 40 24 00 00 	movups 0x2440(%rdi),%xmm0
    1edf:	0f 10 8f 50 24 00 00 	movups 0x2450(%rdi),%xmm1
    1ee6:	0f 29 85 e0 f7 ff ff 	movaps %xmm0,-0x820(%rbp)
    1eed:	0f 29 8d f0 f7 ff ff 	movaps %xmm1,-0x810(%rbp)
    1ef4:	0f 10 87 60 24 00 00 	movups 0x2460(%rdi),%xmm0
    1efb:	0f 10 8f 70 24 00 00 	movups 0x2470(%rdi),%xmm1
    1f02:	0f 29 85 00 f8 ff ff 	movaps %xmm0,-0x800(%rbp)
    1f09:	0f 29 8d 10 f8 ff ff 	movaps %xmm1,-0x7f0(%rbp)
    1f10:	0f 10 87 80 24 00 00 	movups 0x2480(%rdi),%xmm0
    1f17:	0f 10 8f 90 24 00 00 	movups 0x2490(%rdi),%xmm1
    1f1e:	0f 29 85 20 f8 ff ff 	movaps %xmm0,-0x7e0(%rbp)
    1f25:	0f 29 8d 30 f8 ff ff 	movaps %xmm1,-0x7d0(%rbp)
    1f2c:	0f 10 87 a0 24 00 00 	movups 0x24a0(%rdi),%xmm0
    1f33:	0f 10 8f b0 24 00 00 	movups 0x24b0(%rdi),%xmm1
    1f3a:	0f 29 85 40 f8 ff ff 	movaps %xmm0,-0x7c0(%rbp)
    1f41:	0f 29 8d 50 f8 ff ff 	movaps %xmm1,-0x7b0(%rbp)
    1f48:	0f 10 87 c0 24 00 00 	movups 0x24c0(%rdi),%xmm0
    1f4f:	0f 10 8f d0 24 00 00 	movups 0x24d0(%rdi),%xmm1
    1f56:	0f 29 85 60 f8 ff ff 	movaps %xmm0,-0x7a0(%rbp)
    1f5d:	0f 29 8d 70 f8 ff ff 	movaps %xmm1,-0x790(%rbp)
    1f64:	0f 10 87 e0 24 00 00 	movups 0x24e0(%rdi),%xmm0
    1f6b:	0f 10 8f f0 24 00 00 	movups 0x24f0(%rdi),%xmm1
    1f72:	0f 29 85 80 f8 ff ff 	movaps %xmm0,-0x780(%rbp)
    1f79:	0f 29 8d 90 f8 ff ff 	movaps %xmm1,-0x770(%rbp)
    1f80:	0f 10 87 00 25 00 00 	movups 0x2500(%rdi),%xmm0
    1f87:	0f 10 8f 10 25 00 00 	movups 0x2510(%rdi),%xmm1
    1f8e:	0f 29 85 a0 f8 ff ff 	movaps %xmm0,-0x760(%rbp)
    1f95:	0f 29 8d b0 f8 ff ff 	movaps %xmm1,-0x750(%rbp)
    1f9c:	0f 10 87 20 25 00 00 	movups 0x2520(%rdi),%xmm0
    1fa3:	0f 10 8f 30 25 00 00 	movups 0x2530(%rdi),%xmm1
    1faa:	0f 29 85 c0 f8 ff ff 	movaps %xmm0,-0x740(%rbp)
    1fb1:	0f 29 8d d0 f8 ff ff 	movaps %xmm1,-0x730(%rbp)
    1fb8:	0f 10 87 40 25 00 00 	movups 0x2540(%rdi),%xmm0
    1fbf:	0f 10 8f 50 25 00 00 	movups 0x2550(%rdi),%xmm1
    1fc6:	0f 29 85 e0 f8 ff ff 	movaps %xmm0,-0x720(%rbp)
    1fcd:	0f 29 8d f0 f8 ff ff 	movaps %xmm1,-0x710(%rbp)
    1fd4:	0f 10 87 60 25 00 00 	movups 0x2560(%rdi),%xmm0
    1fdb:	0f 10 8f 70 25 00 00 	movups 0x2570(%rdi),%xmm1
    1fe2:	0f 29 85 00 f9 ff ff 	movaps %xmm0,-0x700(%rbp)
    1fe9:	0f 29 8d 10 f9 ff ff 	movaps %xmm1,-0x6f0(%rbp)
    1ff0:	0f 10 87 80 25 00 00 	movups 0x2580(%rdi),%xmm0
    1ff7:	0f 10 8f 90 25 00 00 	movups 0x2590(%rdi),%xmm1
    1ffe:	0f 29 85 20 f9 ff ff 	movaps %xmm0,-0x6e0(%rbp)
    2005:	0f 29 8d 30 f9 ff ff 	movaps %xmm1,-0x6d0(%rbp)
    200c:	0f 10 87 a0 25 00 00 	movups 0x25a0(%rdi),%xmm0
    2013:	0f 10 8f b0 25 00 00 	movups 0x25b0(%rdi),%xmm1
    201a:	0f 29 85 40 f9 ff ff 	movaps %xmm0,-0x6c0(%rbp)
    2021:	0f 29 8d 50 f9 ff ff 	movaps %xmm1,-0x6b0(%rbp)
    2028:	0f 10 87 c0 25 00 00 	movups 0x25c0(%rdi),%xmm0
    202f:	0f 10 8f d0 25 00 00 	movups 0x25d0(%rdi),%xmm1
    2036:	0f 29 85 60 f9 ff ff 	movaps %xmm0,-0x6a0(%rbp)
    203d:	0f 29 8d 70 f9 ff ff 	movaps %xmm1,-0x690(%rbp)
    2044:	f3 0f 6f 87 e0 25 00 	movdqu 0x25e0(%rdi),%xmm0
    204b:	00 
    204c:	f3 0f 6f 8f f0 25 00 	movdqu 0x25f0(%rdi),%xmm1
    2053:	00 
    2054:	66 0f 7f 85 80 f9 ff 	movdqa %xmm0,-0x680(%rbp)
    205b:	ff 
    205c:	66 0f 7f 8d 90 f9 ff 	movdqa %xmm1,-0x670(%rbp)
    2063:	ff 
    2064:	0f 84 aa fd ff ff    	je     1e14 <m16_write_file_ex+0x314>
    206a:	0f 29 95 90 f7 ff ff 	movaps %xmm2,-0x870(%rbp)
    2071:	0f 10 87 00 26 00 00 	movups 0x2600(%rdi),%xmm0
    2078:	0f 10 8f 10 26 00 00 	movups 0x2610(%rdi),%xmm1
    207f:	0f 29 85 a0 f9 ff ff 	movaps %xmm0,-0x660(%rbp)
    2086:	0f 29 8d b0 f9 ff ff 	movaps %xmm1,-0x650(%rbp)
    208d:	0f 10 87 20 26 00 00 	movups 0x2620(%rdi),%xmm0
    2094:	0f 10 8f 30 26 00 00 	movups 0x2630(%rdi),%xmm1
    209b:	0f 29 85 c0 f9 ff ff 	movaps %xmm0,-0x640(%rbp)
    20a2:	0f 29 8d d0 f9 ff ff 	movaps %xmm1,-0x630(%rbp)
    20a9:	0f 10 87 40 26 00 00 	movups 0x2640(%rdi),%xmm0
    20b0:	0f 10 8f 50 26 00 00 	movups 0x2650(%rdi),%xmm1
    20b7:	0f 29 85 e0 f9 ff ff 	movaps %xmm0,-0x620(%rbp)
    20be:	0f 29 8d f0 f9 ff ff 	movaps %xmm1,-0x610(%rbp)
    20c5:	0f 10 87 60 26 00 00 	movups 0x2660(%rdi),%xmm0
    20cc:	0f 10 8f 70 26 00 00 	movups 0x2670(%rdi),%xmm1
    20d3:	0f 29 85 00 fa ff ff 	movaps %xmm0,-0x600(%rbp)
    20da:	0f 29 8d 10 fa ff ff 	movaps %xmm1,-0x5f0(%rbp)
    20e1:	0f 10 87 80 26 00 00 	movups 0x2680(%rdi),%xmm0
    20e8:	0f 10 8f 90 26 00 00 	movups 0x2690(%rdi),%xmm1
    20ef:	0f 29 85 20 fa ff ff 	movaps %xmm0,-0x5e0(%rbp)
    20f6:	0f 29 8d 30 fa ff ff 	movaps %xmm1,-0x5d0(%rbp)
    20fd:	0f 10 87 a0 26 00 00 	movups 0x26a0(%rdi),%xmm0
    2104:	0f 10 8f b0 26 00 00 	movups 0x26b0(%rdi),%xmm1
    210b:	0f 29 85 40 fa ff ff 	movaps %xmm0,-0x5c0(%rbp)
    2112:	0f 29 8d 50 fa ff ff 	movaps %xmm1,-0x5b0(%rbp)
    2119:	0f 10 87 c0 26 00 00 	movups 0x26c0(%rdi),%xmm0
    2120:	0f 10 8f d0 26 00 00 	movups 0x26d0(%rdi),%xmm1
    2127:	0f 29 85 60 fa ff ff 	movaps %xmm0,-0x5a0(%rbp)
    212e:	0f 29 8d 70 fa ff ff 	movaps %xmm1,-0x590(%rbp)
    2135:	0f 10 87 e0 26 00 00 	movups 0x26e0(%rdi),%xmm0
    213c:	0f 10 8f f0 26 00 00 	movups 0x26f0(%rdi),%xmm1
    2143:	0f 29 85 80 fa ff ff 	movaps %xmm0,-0x580(%rbp)
    214a:	0f 29 8d 90 fa ff ff 	movaps %xmm1,-0x570(%rbp)
    2151:	0f 10 87 00 27 00 00 	movups 0x2700(%rdi),%xmm0
    2158:	0f 10 8f 10 27 00 00 	movups 0x2710(%rdi),%xmm1
    215f:	0f 29 85 a0 fa ff ff 	movaps %xmm0,-0x560(%rbp)
    2166:	0f 29 8d b0 fa ff ff 	movaps %xmm1,-0x550(%rbp)
    216d:	0f 10 87 20 27 00 00 	movups 0x2720(%rdi),%xmm0
    2174:	0f 10 8f 30 27 00 00 	movups 0x2730(%rdi),%xmm1
    217b:	0f 29 85 c0 fa ff ff 	movaps %xmm0,-0x540(%rbp)
    2182:	0f 29 8d d0 fa ff ff 	movaps %xmm1,-0x530(%rbp)
    2189:	0f 10 87 40 27 00 00 	movups 0x2740(%rdi),%xmm0
    2190:	0f 10 8f 50 27 00 00 	movups 0x2750(%rdi),%xmm1
    2197:	0f 29 85 e0 fa ff ff 	movaps %xmm0,-0x520(%rbp)
    219e:	0f 29 8d f0 fa ff ff 	movaps %xmm1,-0x510(%rbp)
    21a5:	0f 10 87 60 27 00 00 	movups 0x2760(%rdi),%xmm0
    21ac:	0f 10 8f 70 27 00 00 	movups 0x2770(%rdi),%xmm1
    21b3:	0f 29 85 00 fb ff ff 	movaps %xmm0,-0x500(%rbp)
    21ba:	0f 29 8d 10 fb ff ff 	movaps %xmm1,-0x4f0(%rbp)
    21c1:	0f 10 87 80 27 00 00 	movups 0x2780(%rdi),%xmm0
    21c8:	0f 10 8f 90 27 00 00 	movups 0x2790(%rdi),%xmm1
    21cf:	0f 29 85 20 fb ff ff 	movaps %xmm0,-0x4e0(%rbp)
    21d6:	0f 29 8d 30 fb ff ff 	movaps %xmm1,-0x4d0(%rbp)
    21dd:	0f 10 87 a0 27 00 00 	movups 0x27a0(%rdi),%xmm0
    21e4:	0f 10 8f b0 27 00 00 	movups 0x27b0(%rdi),%xmm1
    21eb:	0f 29 85 40 fb ff ff 	movaps %xmm0,-0x4c0(%rbp)
    21f2:	0f 29 8d 50 fb ff ff 	movaps %xmm1,-0x4b0(%rbp)
    21f9:	0f 10 87 c0 27 00 00 	movups 0x27c0(%rdi),%xmm0
    2200:	0f 10 8f d0 27 00 00 	movups 0x27d0(%rdi),%xmm1
    2207:	0f 29 85 60 fb ff ff 	movaps %xmm0,-0x4a0(%rbp)
    220e:	0f 29 8d 70 fb ff ff 	movaps %xmm1,-0x490(%rbp)
    2215:	f3 0f 6f 87 e0 27 00 	movdqu 0x27e0(%rdi),%xmm0
    221c:	00 
    221d:	f3 0f 6f 8f f0 27 00 	movdqu 0x27f0(%rdi),%xmm1
    2224:	00 
    2225:	66 0f 7f 85 80 fb ff 	movdqa %xmm0,-0x480(%rbp)
    222c:	ff 
    222d:	66 0f 7f 8d 90 fb ff 	movdqa %xmm1,-0x470(%rbp)
    2234:	ff 
    2235:	48 8d b5 60 df ff ff 	lea    -0x20a0(%rbp),%rsi
    223c:	e8 4f 0e 00 00       	call   3090 <m16_load_inode_table>
    2241:	85 c0                	test   %eax,%eax
    2243:	0f 85 cb fb ff ff    	jne    1e14 <m16_write_file_ex+0x314>
    2249:	b8 ff ff ff ff       	mov    $0xffffffff,%eax
    224e:	83 fb 19             	cmp    $0x19,%ebx
    2251:	0f 82 bd fb ff ff    	jb     1e14 <m16_write_file_ex+0x314>
    2257:	41 0f 10 86 00 30 00 	movups 0x3000(%r14),%xmm0
    225e:	00 
    225f:	41 0f 10 8e 10 30 00 	movups 0x3010(%r14),%xmm1
    2266:	00 
    2267:	0f 29 85 a0 fd ff ff 	movaps %xmm0,-0x260(%rbp)
    226e:	0f 29 8d b0 fd ff ff 	movaps %xmm1,-0x250(%rbp)
    2275:	41 0f 10 86 20 30 00 	movups 0x3020(%r14),%xmm0
    227c:	00 
    227d:	41 0f 10 8e 30 30 00 	movups 0x3030(%r14),%xmm1
    2284:	00 
    2285:	0f 29 85 c0 fd ff ff 	movaps %xmm0,-0x240(%rbp)
    228c:	0f 29 8d d0 fd ff ff 	movaps %xmm1,-0x230(%rbp)
    2293:	41 0f 10 86 40 30 00 	movups 0x3040(%r14),%xmm0
    229a:	00 
    229b:	41 0f 10 8e 50 30 00 	movups 0x3050(%r14),%xmm1
    22a2:	00 
    22a3:	0f 29 85 e0 fd ff ff 	movaps %xmm0,-0x220(%rbp)
    22aa:	0f 29 8d f0 fd ff ff 	movaps %xmm1,-0x210(%rbp)
    22b1:	41 0f 10 86 60 30 00 	movups 0x3060(%r14),%xmm0
    22b8:	00 
    22b9:	41 0f 10 8e 70 30 00 	movups 0x3070(%r14),%xmm1
    22c0:	00 
    22c1:	0f 29 85 00 fe ff ff 	movaps %xmm0,-0x200(%rbp)
    22c8:	0f 29 8d 10 fe ff ff 	movaps %xmm1,-0x1f0(%rbp)
    22cf:	41 0f 10 86 80 30 00 	movups 0x3080(%r14),%xmm0
    22d6:	00 
    22d7:	41 0f 10 8e 90 30 00 	movups 0x3090(%r14),%xmm1
    22de:	00 
    22df:	0f 29 85 20 fe ff ff 	movaps %xmm0,-0x1e0(%rbp)
    22e6:	0f 29 8d 30 fe ff ff 	movaps %xmm1,-0x1d0(%rbp)
    22ed:	41 0f 10 86 a0 30 00 	movups 0x30a0(%r14),%xmm0
    22f4:	00 
    22f5:	41 0f 10 8e b0 30 00 	movups 0x30b0(%r14),%xmm1
    22fc:	00 
    22fd:	0f 29 85 40 fe ff ff 	movaps %xmm0,-0x1c0(%rbp)
    2304:	0f 29 8d 50 fe ff ff 	movaps %xmm1,-0x1b0(%rbp)
    230b:	41 0f 10 86 c0 30 00 	movups 0x30c0(%r14),%xmm0
    2312:	00 
    2313:	41 0f 10 8e d0 30 00 	movups 0x30d0(%r14),%xmm1
    231a:	00 
    231b:	0f 29 85 60 fe ff ff 	movaps %xmm0,-0x1a0(%rbp)
    2322:	0f 29 8d 70 fe ff ff 	movaps %xmm1,-0x190(%rbp)
    2329:	41 0f 10 86 e0 30 00 	movups 0x30e0(%r14),%xmm0
    2330:	00 
    2331:	41 0f 10 8e f0 30 00 	movups 0x30f0(%r14),%xmm1
    2338:	00 
    2339:	0f 29 85 80 fe ff ff 	movaps %xmm0,-0x180(%rbp)
    2340:	0f 29 8d 90 fe ff ff 	movaps %xmm1,-0x170(%rbp)
    2347:	41 0f 10 86 00 31 00 	movups 0x3100(%r14),%xmm0
    234e:	00 
    234f:	41 0f 10 8e 10 31 00 	movups 0x3110(%r14),%xmm1
    2356:	00 
    2357:	0f 29 85 a0 fe ff ff 	movaps %xmm0,-0x160(%rbp)
    235e:	0f 29 8d b0 fe ff ff 	movaps %xmm1,-0x150(%rbp)
    2365:	41 0f 10 86 20 31 00 	movups 0x3120(%r14),%xmm0
    236c:	00 
    236d:	41 0f 10 8e 30 31 00 	movups 0x3130(%r14),%xmm1
    2374:	00 
    2375:	0f 29 85 c0 fe ff ff 	movaps %xmm0,-0x140(%rbp)
    237c:	0f 29 8d d0 fe ff ff 	movaps %xmm1,-0x130(%rbp)
    2383:	41 0f 10 86 40 31 00 	movups 0x3140(%r14),%xmm0
    238a:	00 
    238b:	41 0f 10 8e 50 31 00 	movups 0x3150(%r14),%xmm1
    2392:	00 
    2393:	0f 29 85 e0 fe ff ff 	movaps %xmm0,-0x120(%rbp)
    239a:	0f 29 8d f0 fe ff ff 	movaps %xmm1,-0x110(%rbp)
    23a1:	41 0f 10 86 60 31 00 	movups 0x3160(%r14),%xmm0
    23a8:	00 
    23a9:	41 0f 10 8e 70 31 00 	movups 0x3170(%r14),%xmm1
    23b0:	00 
    23b1:	0f 29 85 00 ff ff ff 	movaps %xmm0,-0x100(%rbp)
    23b8:	0f 29 8d 10 ff ff ff 	movaps %xmm1,-0xf0(%rbp)
    23bf:	41 0f 10 86 80 31 00 	movups 0x3180(%r14),%xmm0
    23c6:	00 
    23c7:	41 0f 10 8e 90 31 00 	movups 0x3190(%r14),%xmm1
    23ce:	00 
    23cf:	0f 29 85 20 ff ff ff 	movaps %xmm0,-0xe0(%rbp)
    23d6:	0f 29 8d 30 ff ff ff 	movaps %xmm1,-0xd0(%rbp)
    23dd:	41 0f 10 86 a0 31 00 	movups 0x31a0(%r14),%xmm0
    23e4:	00 
    23e5:	41 0f 10 8e b0 31 00 	movups 0x31b0(%r14),%xmm1
    23ec:	00 
    23ed:	0f 29 85 40 ff ff ff 	movaps %xmm0,-0xc0(%rbp)
    23f4:	0f 29 8d 50 ff ff ff 	movaps %xmm1,-0xb0(%rbp)
    23fb:	41 0f 10 86 c0 31 00 	movups 0x31c0(%r14),%xmm0
    2402:	00 
    2403:	41 0f 10 8e d0 31 00 	movups 0x31d0(%r14),%xmm1
    240a:	00 
    240b:	0f 29 85 60 ff ff ff 	movaps %xmm0,-0xa0(%rbp)
    2412:	0f 29 8d 70 ff ff ff 	movaps %xmm1,-0x90(%rbp)
    2419:	f3 41 0f 6f 86 e0 31 	movdqu 0x31e0(%r14),%xmm0
    2420:	00 00 
    2422:	f3 41 0f 6f 8e f0 31 	movdqu 0x31f0(%r14),%xmm1
    2429:	00 00 
    242b:	66 0f 7f 45 80       	movdqa %xmm0,-0x80(%rbp)
    2430:	66 0f 7f 4d 90       	movdqa %xmm1,-0x70(%rbp)
    2435:	48 8d bd a0 fd ff ff 	lea    -0x260(%rbp),%rdi
    243c:	48 8b 75 b8          	mov    -0x48(%rbp),%rsi
    2440:	e8 2b 15 00 00       	call   3970 <m16_find_dirent>
    2445:	89 c1                	mov    %eax,%ecx
    2447:	b8 fc ff ff ff       	mov    $0xfffffffc,%eax
    244c:	85 c9                	test   %ecx,%ecx
    244e:	0f 89 c0 f9 ff ff    	jns    1e14 <m16_write_file_ex+0x314>
    2454:	48 8d bd a0 f7 ff ff 	lea    -0x860(%rbp),%rdi
    245b:	e8 70 15 00 00       	call   39d0 <m16_find_free_inode>
    2460:	85 c0                	test   %eax,%eax
    2462:	0f 88 ac f9 ff ff    	js     1e14 <m16_write_file_ex+0x314>
    2468:	be 1a 00 00 00       	mov    $0x1a,%esi
    246d:	8d 56 ff             	lea    -0x1(%rsi),%edx
    2470:	89 d7                	mov    %edx,%edi
    2472:	c1 ef 03             	shr    $0x3,%edi
    2475:	89 d1                	mov    %edx,%ecx
    2477:	80 e1 07             	and    $0x7,%cl
    247a:	bb 01 00 00 00       	mov    $0x1,%ebx
    247f:	d3 e3                	shl    %cl,%ebx
    2481:	44 0f b6 84 3d a0 f9 	movzbl -0x660(%rbp,%rdi,1),%r8d
    2488:	ff ff 
    248a:	89 d1                	mov    %edx,%ecx
    248c:	83 e1 07             	and    $0x7,%ecx
    248f:	41 0f a3 c8          	bt     %ecx,%r8d
    2493:	73 34                	jae    24c9 <m16_write_file_ex+0x9c9>
    2495:	81 fe 80 00 00 00    	cmp    $0x80,%esi
    249b:	0f 84 25 05 00 00    	je     29c6 <m16_write_file_ex+0xec6>
    24a1:	89 f2                	mov    %esi,%edx
    24a3:	c1 ea 03             	shr    $0x3,%edx
    24a6:	89 f1                	mov    %esi,%ecx
    24a8:	80 e1 07             	and    $0x7,%cl
    24ab:	bb 01 00 00 00       	mov    $0x1,%ebx
    24b0:	d3 e3                	shl    %cl,%ebx
    24b2:	0f b6 bc 15 a0 f9 ff 	movzbl -0x660(%rbp,%rdx,1),%edi
    24b9:	ff 
    24ba:	89 f1                	mov    %esi,%ecx
    24bc:	83 e1 07             	and    $0x7,%ecx
    24bf:	0f a3 cf             	bt     %ecx,%edi
    24c2:	73 18                	jae    24dc <m16_write_file_ex+0x9dc>
    24c4:	83 c6 02             	add    $0x2,%esi
    24c7:	eb a4                	jmp    246d <m16_write_file_ex+0x96d>
    24c9:	44 89 45 d0          	mov    %r8d,-0x30(%rbp)
    24cd:	48 89 7d a8          	mov    %rdi,-0x58(%rbp)
    24d1:	89 45 cc             	mov    %eax,-0x34(%rbp)
    24d4:	89 d0                	mov    %edx,%eax
    24d6:	48 89 45 c0          	mov    %rax,-0x40(%rbp)
    24da:	eb 0e                	jmp    24ea <m16_write_file_ex+0x9ea>
    24dc:	89 7d d0             	mov    %edi,-0x30(%rbp)
    24df:	48 89 55 a8          	mov    %rdx,-0x58(%rbp)
    24e3:	48 89 75 c0          	mov    %rsi,-0x40(%rbp)
    24e7:	89 45 cc             	mov    %eax,-0x34(%rbp)
    24ea:	48 8d bd a0 fd ff ff 	lea    -0x260(%rbp),%rdi
    24f1:	e8 9a 15 00 00       	call   3a90 <m16_find_free_dirent>
    24f6:	85 c0                	test   %eax,%eax
    24f8:	0f 88 16 f9 ff ff    	js     1e14 <m16_write_file_ex+0x314>
    24fe:	66 0f ef c0          	pxor   %xmm0,%xmm0
    2502:	66 0f 7f 85 a0 fb ff 	movdqa %xmm0,-0x460(%rbp)
    2509:	ff 
    250a:	66 0f 7f 85 b0 fb ff 	movdqa %xmm0,-0x450(%rbp)
    2511:	ff 
    2512:	66 0f 7f 85 c0 fb ff 	movdqa %xmm0,-0x440(%rbp)
    2519:	ff 
    251a:	66 0f 7f 85 d0 fb ff 	movdqa %xmm0,-0x430(%rbp)
    2521:	ff 
    2522:	66 0f 7f 85 e0 fb ff 	movdqa %xmm0,-0x420(%rbp)
    2529:	ff 
    252a:	66 0f 7f 85 f0 fb ff 	movdqa %xmm0,-0x410(%rbp)
    2531:	ff 
    2532:	66 0f 7f 85 00 fc ff 	movdqa %xmm0,-0x400(%rbp)
    2539:	ff 
    253a:	66 0f 7f 85 10 fc ff 	movdqa %xmm0,-0x3f0(%rbp)
    2541:	ff 
    2542:	66 0f 7f 85 20 fc ff 	movdqa %xmm0,-0x3e0(%rbp)
    2549:	ff 
    254a:	66 0f 7f 85 30 fc ff 	movdqa %xmm0,-0x3d0(%rbp)
    2551:	ff 
    2552:	66 0f 7f 85 40 fc ff 	movdqa %xmm0,-0x3c0(%rbp)
    2559:	ff 
    255a:	66 0f 7f 85 50 fc ff 	movdqa %xmm0,-0x3b0(%rbp)
    2561:	ff 
    2562:	66 0f 7f 85 60 fc ff 	movdqa %xmm0,-0x3a0(%rbp)
    2569:	ff 
    256a:	66 0f 7f 85 70 fc ff 	movdqa %xmm0,-0x390(%rbp)
    2571:	ff 
    2572:	66 0f 7f 85 80 fc ff 	movdqa %xmm0,-0x380(%rbp)
    2579:	ff 
    257a:	66 0f 7f 85 90 fc ff 	movdqa %xmm0,-0x370(%rbp)
    2581:	ff 
    2582:	66 0f 7f 85 a0 fc ff 	movdqa %xmm0,-0x360(%rbp)
    2589:	ff 
    258a:	66 0f 7f 85 b0 fc ff 	movdqa %xmm0,-0x350(%rbp)
    2591:	ff 
    2592:	66 0f 7f 85 c0 fc ff 	movdqa %xmm0,-0x340(%rbp)
    2599:	ff 
    259a:	66 0f 7f 85 d0 fc ff 	movdqa %xmm0,-0x330(%rbp)
    25a1:	ff 
    25a2:	66 0f 7f 85 e0 fc ff 	movdqa %xmm0,-0x320(%rbp)
    25a9:	ff 
    25aa:	66 0f 7f 85 f0 fc ff 	movdqa %xmm0,-0x310(%rbp)
    25b1:	ff 
    25b2:	66 0f 7f 85 00 fd ff 	movdqa %xmm0,-0x300(%rbp)
    25b9:	ff 
    25ba:	66 0f 7f 85 10 fd ff 	movdqa %xmm0,-0x2f0(%rbp)
    25c1:	ff 
    25c2:	66 0f 7f 85 20 fd ff 	movdqa %xmm0,-0x2e0(%rbp)
    25c9:	ff 
    25ca:	66 0f 7f 85 30 fd ff 	movdqa %xmm0,-0x2d0(%rbp)
    25d1:	ff 
    25d2:	66 0f 7f 85 40 fd ff 	movdqa %xmm0,-0x2c0(%rbp)
    25d9:	ff 
    25da:	66 0f 7f 85 50 fd ff 	movdqa %xmm0,-0x2b0(%rbp)
    25e1:	ff 
    25e2:	66 0f 7f 85 60 fd ff 	movdqa %xmm0,-0x2a0(%rbp)
    25e9:	ff 
    25ea:	66 0f 7f 85 70 fd ff 	movdqa %xmm0,-0x290(%rbp)
    25f1:	ff 
    25f2:	66 0f 7f 85 80 fd ff 	movdqa %xmm0,-0x280(%rbp)
    25f9:	ff 
    25fa:	66 0f 7f 85 90 fd ff 	movdqa %xmm0,-0x270(%rbp)
    2601:	ff 
    2602:	83 7d d4 00          	cmpl   $0x0,-0x2c(%rbp)
    2606:	0f 84 8c 00 00 00    	je     2698 <m16_write_file_ex+0xb98>
    260c:	8b 55 d4             	mov    -0x2c(%rbp),%edx
    260f:	89 d1                	mov    %edx,%ecx
    2611:	83 fa 08             	cmp    $0x8,%edx
    2614:	73 04                	jae    261a <m16_write_file_ex+0xb1a>
    2616:	31 d2                	xor    %edx,%edx
    2618:	eb 69                	jmp    2683 <m16_write_file_ex+0xb83>
    261a:	83 7d d4 20          	cmpl   $0x20,-0x2c(%rbp)
    261e:	73 04                	jae    2624 <m16_write_file_ex+0xb24>
    2620:	31 d2                	xor    %edx,%edx
    2622:	eb 3a                	jmp    265e <m16_write_file_ex+0xb5e>
    2624:	89 ca                	mov    %ecx,%edx
    2626:	81 e2 e0 03 00 00    	and    $0x3e0,%edx
    262c:	31 f6                	xor    %esi,%esi
    262e:	f3 41 0f 6f 0c 37    	movdqu (%r15,%rsi,1),%xmm1
    2634:	41 0f 10 54 37 10    	movups 0x10(%r15,%rsi,1),%xmm2
    263a:	66 0f 7f 8c 35 a0 fb 	movdqa %xmm1,-0x460(%rbp,%rsi,1)
    2641:	ff ff 
    2643:	0f 29 94 35 b0 fb ff 	movaps %xmm2,-0x450(%rbp,%rsi,1)
    264a:	ff 
    264b:	48 83 c6 20          	add    $0x20,%rsi
    264f:	48 39 f2             	cmp    %rsi,%rdx
    2652:	75 da                	jne    262e <m16_write_file_ex+0xb2e>
    2654:	48 39 ca             	cmp    %rcx,%rdx
    2657:	74 3f                	je     2698 <m16_write_file_ex+0xb98>
    2659:	f6 c1 18             	test   $0x18,%cl
    265c:	74 25                	je     2683 <m16_write_file_ex+0xb83>
    265e:	48 89 d6             	mov    %rdx,%rsi
    2661:	89 ca                	mov    %ecx,%edx
    2663:	81 e2 f8 03 00 00    	and    $0x3f8,%edx
    2669:	49 8b 3c 37          	mov    (%r15,%rsi,1),%rdi
    266d:	48 89 bc 35 a0 fb ff 	mov    %rdi,-0x460(%rbp,%rsi,1)
    2674:	ff 
    2675:	48 83 c6 08          	add    $0x8,%rsi
    2679:	48 39 f2             	cmp    %rsi,%rdx
    267c:	75 eb                	jne    2669 <m16_write_file_ex+0xb69>
    267e:	48 39 ca             	cmp    %rcx,%rdx
    2681:	74 15                	je     2698 <m16_write_file_ex+0xb98>
    2683:	41 0f b6 34 17       	movzbl (%r15,%rdx,1),%esi
    2688:	40 88 b4 15 a0 fb ff 	mov    %sil,-0x460(%rbp,%rdx,1)
    268f:	ff 
    2690:	48 ff c2             	inc    %rdx
    2693:	48 39 d1             	cmp    %rdx,%rcx
    2696:	75 eb                	jne    2683 <m16_write_file_ex+0xb83>
    2698:	8b 55 cc             	mov    -0x34(%rbp),%edx
    269b:	89 d6                	mov    %edx,%esi
    269d:	89 d1                	mov    %edx,%ecx
    269f:	80 e1 07             	and    $0x7,%cl
    26a2:	bf 01 00 00 00       	mov    $0x1,%edi
    26a7:	d3 e7                	shl    %cl,%edi
    26a9:	c1 ee 03             	shr    $0x3,%esi
    26ac:	40 08 bc 35 a0 f7 ff 	or     %dil,-0x860(%rbp,%rsi,1)
    26b3:	ff 
    26b4:	89 d6                	mov    %edx,%esi
    26b6:	8b 7d d0             	mov    -0x30(%rbp),%edi
    26b9:	40 08 df             	or     %bl,%dil
    26bc:	48 8b 4d a8          	mov    -0x58(%rbp),%rcx
    26c0:	40 88 bc 0d a0 f9 ff 	mov    %dil,-0x660(%rbp,%rcx,1)
    26c7:	ff 
    26c8:	48 c1 e6 07          	shl    $0x7,%rsi
    26cc:	48 b9 01 00 00 00 01 	movabs $0x100000001,%rcx
    26d3:	00 00 00 
    26d6:	48 89 8c 35 60 df ff 	mov    %rcx,-0x20a0(%rbp,%rsi,1)
    26dd:	ff 
    26de:	8b 4d d4             	mov    -0x2c(%rbp),%ecx
    26e1:	89 8c 35 68 df ff ff 	mov    %ecx,-0x2098(%rbp,%rsi,1)
    26e8:	48 8b 4d c0          	mov    -0x40(%rbp),%rcx
    26ec:	89 8c 35 6c df ff ff 	mov    %ecx,-0x2094(%rbp,%rsi,1)
    26f3:	89 c0                	mov    %eax,%eax
    26f5:	48 8d 0c 80          	lea    (%rax,%rax,4),%rcx
    26f9:	c7 84 cd a0 fd ff ff 	movl   $0x1,-0x260(%rbp,%rcx,8)
    2700:	01 00 00 00 
    2704:	89 94 cd a4 fd ff ff 	mov    %edx,-0x25c(%rbp,%rcx,8)
    270b:	48 8d 04 cd a8 fd ff 	lea    -0x258(,%rcx,8),%rax
    2712:	ff 
    2713:	48 01 e8             	add    %rbp,%rax
    2716:	f3 0f 7f 84 cd a8 fd 	movdqu %xmm0,-0x258(%rbp,%rcx,8)
    271d:	ff ff 
    271f:	f3 0f 7f 84 cd b8 fd 	movdqu %xmm0,-0x248(%rbp,%rcx,8)
    2726:	ff ff 
    2728:	45 84 ed             	test   %r13b,%r13b
    272b:	74 08                	je     2735 <m16_write_file_ex+0xc35>
    272d:	31 c9                	xor    %ecx,%ecx
    272f:	48 8b 55 b8          	mov    -0x48(%rbp),%rdx
    2733:	eb 1d                	jmp    2752 <m16_write_file_ex+0xc52>
    2735:	44 89 e1             	mov    %r12d,%ecx
    2738:	83 e1 fc             	and    $0xfffffffc,%ecx
    273b:	31 f6                	xor    %esi,%esi
    273d:	48 8b 55 b8          	mov    -0x48(%rbp),%rdx
    2741:	8b 3c 32             	mov    (%rdx,%rsi,1),%edi
    2744:	89 3c 30             	mov    %edi,(%rax,%rsi,1)
    2747:	48 83 c6 04          	add    $0x4,%rsi
    274b:	48 39 f1             	cmp    %rsi,%rcx
    274e:	75 f1                	jne    2741 <m16_write_file_ex+0xc41>
    2750:	eb 0b                	jmp    275d <m16_write_file_ex+0xc5d>
    2752:	0f b6 34 0a          	movzbl (%rdx,%rcx,1),%esi
    2756:	40 88 34 08          	mov    %sil,(%rax,%rcx,1)
    275a:	48 ff c1             	inc    %rcx
    275d:	49 39 cc             	cmp    %rcx,%r12
    2760:	75 f0                	jne    2752 <m16_write_file_ex+0xc52>
    2762:	b8 50 00 00 00       	mov    $0x50,%eax
    2767:	66 0f ef c0          	pxor   %xmm0,%xmm0
    276b:	f3 0f 7f 84 05 1c e7 	movdqu %xmm0,-0x18e4(%rbp,%rax,1)
    2772:	ff ff 
    2774:	f3 0f 7f 84 05 2c e7 	movdqu %xmm0,-0x18d4(%rbp,%rax,1)
    277b:	ff ff 
    277d:	f3 0f 7f 84 05 3c e7 	movdqu %xmm0,-0x18c4(%rbp,%rax,1)
    2784:	ff ff 
    2786:	f3 0f 7f 84 05 4c e7 	movdqu %xmm0,-0x18b4(%rbp,%rax,1)
    278d:	ff ff 
    278f:	f3 0f 7f 84 05 5c e7 	movdqu %xmm0,-0x18a4(%rbp,%rax,1)
    2796:	ff ff 
    2798:	f3 0f 7f 84 05 6c e7 	movdqu %xmm0,-0x1894(%rbp,%rax,1)
    279f:	ff ff 
    27a1:	48 83 c0 60          	add    $0x60,%rax
    27a5:	48 3d 70 10 00 00    	cmp    $0x1070,%rax
    27ab:	75 be                	jne    276b <m16_write_file_ex+0xc6b>
    27ad:	c7 85 8c f7 ff ff 00 	movl   $0x0,-0x874(%rbp)
    27b4:	00 00 00 
    27b7:	8b 85 6c e7 ff ff    	mov    -0x1894(%rbp),%eax
    27bd:	48 83 f8 07          	cmp    $0x7,%rax
    27c1:	0f 87 ff 01 00 00    	ja     29c6 <m16_write_file_ex+0xec6>
    27c7:	48 89 c1             	mov    %rax,%rcx
    27ca:	48 c1 e1 09          	shl    $0x9,%rcx
    27ce:	48 8d 0c 81          	lea    (%rcx,%rax,4),%rcx
    27d2:	c7 84 0d 70 e7 ff ff 	movl   $0x12,-0x1890(%rbp,%rcx,1)
    27d9:	12 00 00 00 
    27dd:	0f 28 85 a0 f7 ff ff 	movaps -0x860(%rbp),%xmm0
    27e4:	0f 28 8d b0 f7 ff ff 	movaps -0x850(%rbp),%xmm1
    27eb:	0f 28 95 c0 f7 ff ff 	movaps -0x840(%rbp),%xmm2
    27f2:	0f 28 9d d0 f7 ff ff 	movaps -0x830(%rbp),%xmm3
    27f9:	0f 11 84 0d 74 e7 ff 	movups %xmm0,-0x188c(%rbp,%rcx,1)
    2800:	ff 
    2801:	0f 11 8c 0d 84 e7 ff 	movups %xmm1,-0x187c(%rbp,%rcx,1)
    2808:	ff 
    2809:	0f 11 94 0d 94 e7 ff 	movups %xmm2,-0x186c(%rbp,%rcx,1)
    2810:	ff 
    2811:	0f 11 9c 0d a4 e7 ff 	movups %xmm3,-0x185c(%rbp,%rcx,1)
    2818:	ff 
    2819:	0f 28 85 e0 f7 ff ff 	movaps -0x820(%rbp),%xmm0
    2820:	0f 28 8d f0 f7 ff ff 	movaps -0x810(%rbp),%xmm1
    2827:	0f 11 84 0d b4 e7 ff 	movups %xmm0,-0x184c(%rbp,%rcx,1)
    282e:	ff 
    282f:	0f 11 8c 0d c4 e7 ff 	movups %xmm1,-0x183c(%rbp,%rcx,1)
    2836:	ff 
    2837:	0f 28 85 00 f8 ff ff 	movaps -0x800(%rbp),%xmm0
    283e:	0f 28 8d 10 f8 ff ff 	movaps -0x7f0(%rbp),%xmm1
    2845:	0f 11 84 0d d4 e7 ff 	movups %xmm0,-0x182c(%rbp,%rcx,1)
    284c:	ff 
    284d:	0f 11 8c 0d e4 e7 ff 	movups %xmm1,-0x181c(%rbp,%rcx,1)
    2854:	ff 
    2855:	0f 28 85 20 f8 ff ff 	movaps -0x7e0(%rbp),%xmm0
    285c:	0f 28 8d 30 f8 ff ff 	movaps -0x7d0(%rbp),%xmm1
    2863:	0f 11 84 0d f4 e7 ff 	movups %xmm0,-0x180c(%rbp,%rcx,1)
    286a:	ff 
    286b:	0f 11 8c 0d 04 e8 ff 	movups %xmm1,-0x17fc(%rbp,%rcx,1)
    2872:	ff 
    2873:	0f 28 85 40 f8 ff ff 	movaps -0x7c0(%rbp),%xmm0
    287a:	0f 28 8d 50 f8 ff ff 	movaps -0x7b0(%rbp),%xmm1
    2881:	0f 11 84 0d 14 e8 ff 	movups %xmm0,-0x17ec(%rbp,%rcx,1)
    2888:	ff 
    2889:	0f 11 8c 0d 24 e8 ff 	movups %xmm1,-0x17dc(%rbp,%rcx,1)
    2890:	ff 
    2891:	0f 28 85 60 f8 ff ff 	movaps -0x7a0(%rbp),%xmm0
    2898:	0f 28 8d 70 f8 ff ff 	movaps -0x790(%rbp),%xmm1
    289f:	0f 11 84 0d 34 e8 ff 	movups %xmm0,-0x17cc(%rbp,%rcx,1)
    28a6:	ff 
    28a7:	0f 11 8c 0d 44 e8 ff 	movups %xmm1,-0x17bc(%rbp,%rcx,1)
    28ae:	ff 
    28af:	0f 28 85 80 f8 ff ff 	movaps -0x780(%rbp),%xmm0
    28b6:	0f 28 8d 90 f8 ff ff 	movaps -0x770(%rbp),%xmm1
    28bd:	0f 11 84 0d 54 e8 ff 	movups %xmm0,-0x17ac(%rbp,%rcx,1)
    28c4:	ff 
    28c5:	0f 11 8c 0d 64 e8 ff 	movups %xmm1,-0x179c(%rbp,%rcx,1)
    28cc:	ff 
    28cd:	0f 28 85 a0 f8 ff ff 	movaps -0x760(%rbp),%xmm0
    28d4:	0f 28 8d b0 f8 ff ff 	movaps -0x750(%rbp),%xmm1
    28db:	0f 11 84 0d 74 e8 ff 	movups %xmm0,-0x178c(%rbp,%rcx,1)
    28e2:	ff 
    28e3:	0f 11 8c 0d 84 e8 ff 	movups %xmm1,-0x177c(%rbp,%rcx,1)
    28ea:	ff 
    28eb:	0f 28 85 c0 f8 ff ff 	movaps -0x740(%rbp),%xmm0
    28f2:	0f 28 8d d0 f8 ff ff 	movaps -0x730(%rbp),%xmm1
    28f9:	0f 11 84 0d 94 e8 ff 	movups %xmm0,-0x176c(%rbp,%rcx,1)
    2900:	ff 
    2901:	0f 11 8c 0d a4 e8 ff 	movups %xmm1,-0x175c(%rbp,%rcx,1)
    2908:	ff 
    2909:	0f 28 85 e0 f8 ff ff 	movaps -0x720(%rbp),%xmm0
    2910:	0f 28 8d f0 f8 ff ff 	movaps -0x710(%rbp),%xmm1
    2917:	0f 11 84 0d b4 e8 ff 	movups %xmm0,-0x174c(%rbp,%rcx,1)
    291e:	ff 
    291f:	0f 11 8c 0d c4 e8 ff 	movups %xmm1,-0x173c(%rbp,%rcx,1)
    2926:	ff 
    2927:	0f 28 85 00 f9 ff ff 	movaps -0x700(%rbp),%xmm0
    292e:	0f 28 8d 10 f9 ff ff 	movaps -0x6f0(%rbp),%xmm1
    2935:	0f 11 84 0d d4 e8 ff 	movups %xmm0,-0x172c(%rbp,%rcx,1)
    293c:	ff 
    293d:	0f 11 8c 0d e4 e8 ff 	movups %xmm1,-0x171c(%rbp,%rcx,1)
    2944:	ff 
    2945:	0f 28 85 20 f9 ff ff 	movaps -0x6e0(%rbp),%xmm0
    294c:	0f 28 8d 30 f9 ff ff 	movaps -0x6d0(%rbp),%xmm1
    2953:	0f 11 84 0d f4 e8 ff 	movups %xmm0,-0x170c(%rbp,%rcx,1)
    295a:	ff 
    295b:	0f 11 8c 0d 04 e9 ff 	movups %xmm1,-0x16fc(%rbp,%rcx,1)
    2962:	ff 
    2963:	0f 28 85 40 f9 ff ff 	movaps -0x6c0(%rbp),%xmm0
    296a:	0f 28 8d 50 f9 ff ff 	movaps -0x6b0(%rbp),%xmm1
    2971:	0f 11 84 0d 14 e9 ff 	movups %xmm0,-0x16ec(%rbp,%rcx,1)
    2978:	ff 
    2979:	0f 11 8c 0d 24 e9 ff 	movups %xmm1,-0x16dc(%rbp,%rcx,1)
    2980:	ff 
    2981:	0f 28 85 60 f9 ff ff 	movaps -0x6a0(%rbp),%xmm0
    2988:	0f 28 8d 70 f9 ff ff 	movaps -0x690(%rbp),%xmm1
    298f:	0f 11 84 0d 34 e9 ff 	movups %xmm0,-0x16cc(%rbp,%rcx,1)
    2996:	ff 
    2997:	0f 11 8c 0d 44 e9 ff 	movups %xmm1,-0x16bc(%rbp,%rcx,1)
    299e:	ff 
    299f:	66 0f 6f 85 80 f9 ff 	movdqa -0x680(%rbp),%xmm0
    29a6:	ff 
    29a7:	66 0f 6f 8d 90 f9 ff 	movdqa -0x670(%rbp),%xmm1
    29ae:	ff 
    29af:	f3 0f 7f 84 0d 54 e9 	movdqu %xmm0,-0x16ac(%rbp,%rcx,1)
    29b6:	ff ff 
    29b8:	f3 0f 7f 8c 0d 64 e9 	movdqu %xmm1,-0x169c(%rbp,%rcx,1)
    29bf:	ff ff 
    29c1:	83 f8 07             	cmp    $0x7,%eax
    29c4:	75 0a                	jne    29d0 <m16_write_file_ex+0xed0>
    29c6:	b8 fd ff ff ff       	mov    $0xfffffffd,%eax
    29cb:	e9 44 f4 ff ff       	jmp    1e14 <m16_write_file_ex+0x314>
    29d0:	c7 84 0d 74 e9 ff ff 	movl   $0x13,-0x168c(%rbp,%rcx,1)
    29d7:	13 00 00 00 
    29db:	0f 28 85 a0 f9 ff ff 	movaps -0x660(%rbp),%xmm0
    29e2:	0f 28 8d b0 f9 ff ff 	movaps -0x650(%rbp),%xmm1
    29e9:	0f 11 84 0d 78 e9 ff 	movups %xmm0,-0x1688(%rbp,%rcx,1)
    29f0:	ff 
    29f1:	0f 11 8c 0d 88 e9 ff 	movups %xmm1,-0x1678(%rbp,%rcx,1)
    29f8:	ff 
    29f9:	0f 28 85 c0 f9 ff ff 	movaps -0x640(%rbp),%xmm0
    2a00:	0f 28 8d d0 f9 ff ff 	movaps -0x630(%rbp),%xmm1
    2a07:	0f 11 84 0d 98 e9 ff 	movups %xmm0,-0x1668(%rbp,%rcx,1)
    2a0e:	ff 
    2a0f:	0f 11 8c 0d a8 e9 ff 	movups %xmm1,-0x1658(%rbp,%rcx,1)
    2a16:	ff 
    2a17:	0f 28 85 e0 f9 ff ff 	movaps -0x620(%rbp),%xmm0
    2a1e:	0f 28 8d f0 f9 ff ff 	movaps -0x610(%rbp),%xmm1
    2a25:	0f 11 84 0d b8 e9 ff 	movups %xmm0,-0x1648(%rbp,%rcx,1)
    2a2c:	ff 
    2a2d:	0f 11 8c 0d c8 e9 ff 	movups %xmm1,-0x1638(%rbp,%rcx,1)
    2a34:	ff 
    2a35:	0f 28 85 00 fa ff ff 	movaps -0x600(%rbp),%xmm0
    2a3c:	0f 28 8d 10 fa ff ff 	movaps -0x5f0(%rbp),%xmm1
    2a43:	0f 11 84 0d d8 e9 ff 	movups %xmm0,-0x1628(%rbp,%rcx,1)
    2a4a:	ff 
    2a4b:	0f 11 8c 0d e8 e9 ff 	movups %xmm1,-0x1618(%rbp,%rcx,1)
    2a52:	ff 
    2a53:	0f 28 85 20 fa ff ff 	movaps -0x5e0(%rbp),%xmm0
    2a5a:	0f 28 8d 30 fa ff ff 	movaps -0x5d0(%rbp),%xmm1
    2a61:	0f 11 84 0d f8 e9 ff 	movups %xmm0,-0x1608(%rbp,%rcx,1)
    2a68:	ff 
    2a69:	0f 11 8c 0d 08 ea ff 	movups %xmm1,-0x15f8(%rbp,%rcx,1)
    2a70:	ff 
    2a71:	0f 28 85 40 fa ff ff 	movaps -0x5c0(%rbp),%xmm0
    2a78:	0f 28 8d 50 fa ff ff 	movaps -0x5b0(%rbp),%xmm1
    2a7f:	0f 11 84 0d 18 ea ff 	movups %xmm0,-0x15e8(%rbp,%rcx,1)
    2a86:	ff 
    2a87:	0f 11 8c 0d 28 ea ff 	movups %xmm1,-0x15d8(%rbp,%rcx,1)
    2a8e:	ff 
    2a8f:	0f 28 85 60 fa ff ff 	movaps -0x5a0(%rbp),%xmm0
    2a96:	0f 28 8d 70 fa ff ff 	movaps -0x590(%rbp),%xmm1
    2a9d:	0f 11 84 0d 38 ea ff 	movups %xmm0,-0x15c8(%rbp,%rcx,1)
    2aa4:	ff 
    2aa5:	0f 11 8c 0d 48 ea ff 	movups %xmm1,-0x15b8(%rbp,%rcx,1)
    2aac:	ff 
    2aad:	0f 28 85 80 fa ff ff 	movaps -0x580(%rbp),%xmm0
    2ab4:	0f 28 8d 90 fa ff ff 	movaps -0x570(%rbp),%xmm1
    2abb:	0f 11 84 0d 58 ea ff 	movups %xmm0,-0x15a8(%rbp,%rcx,1)
    2ac2:	ff 
    2ac3:	0f 11 8c 0d 68 ea ff 	movups %xmm1,-0x1598(%rbp,%rcx,1)
    2aca:	ff 
    2acb:	0f 28 85 a0 fa ff ff 	movaps -0x560(%rbp),%xmm0
    2ad2:	0f 28 8d b0 fa ff ff 	movaps -0x550(%rbp),%xmm1
    2ad9:	0f 11 84 0d 78 ea ff 	movups %xmm0,-0x1588(%rbp,%rcx,1)
    2ae0:	ff 
    2ae1:	0f 11 8c 0d 88 ea ff 	movups %xmm1,-0x1578(%rbp,%rcx,1)
    2ae8:	ff 
    2ae9:	0f 28 85 c0 fa ff ff 	movaps -0x540(%rbp),%xmm0
    2af0:	0f 28 8d d0 fa ff ff 	movaps -0x530(%rbp),%xmm1
    2af7:	0f 11 84 0d 98 ea ff 	movups %xmm0,-0x1568(%rbp,%rcx,1)
    2afe:	ff 
    2aff:	0f 11 8c 0d a8 ea ff 	movups %xmm1,-0x1558(%rbp,%rcx,1)
    2b06:	ff 
    2b07:	0f 28 85 e0 fa ff ff 	movaps -0x520(%rbp),%xmm0
    2b0e:	0f 28 8d f0 fa ff ff 	movaps -0x510(%rbp),%xmm1
    2b15:	0f 11 84 0d b8 ea ff 	movups %xmm0,-0x1548(%rbp,%rcx,1)
    2b1c:	ff 
    2b1d:	0f 11 8c 0d c8 ea ff 	movups %xmm1,-0x1538(%rbp,%rcx,1)
    2b24:	ff 
    2b25:	0f 28 85 00 fb ff ff 	movaps -0x500(%rbp),%xmm0
    2b2c:	0f 28 8d 10 fb ff ff 	movaps -0x4f0(%rbp),%xmm1
    2b33:	0f 11 84 0d d8 ea ff 	movups %xmm0,-0x1528(%rbp,%rcx,1)
    2b3a:	ff 
    2b3b:	0f 11 8c 0d e8 ea ff 	movups %xmm1,-0x1518(%rbp,%rcx,1)
    2b42:	ff 
    2b43:	0f 28 85 20 fb ff ff 	movaps -0x4e0(%rbp),%xmm0
    2b4a:	0f 28 8d 30 fb ff ff 	movaps -0x4d0(%rbp),%xmm1
    2b51:	0f 11 84 0d f8 ea ff 	movups %xmm0,-0x1508(%rbp,%rcx,1)
    2b58:	ff 
    2b59:	0f 11 8c 0d 08 eb ff 	movups %xmm1,-0x14f8(%rbp,%rcx,1)
    2b60:	ff 
    2b61:	0f 28 85 40 fb ff ff 	movaps -0x4c0(%rbp),%xmm0
    2b68:	0f 28 8d 50 fb ff ff 	movaps -0x4b0(%rbp),%xmm1
    2b6f:	0f 11 84 0d 18 eb ff 	movups %xmm0,-0x14e8(%rbp,%rcx,1)
    2b76:	ff 
    2b77:	0f 11 8c 0d 28 eb ff 	movups %xmm1,-0x14d8(%rbp,%rcx,1)
    2b7e:	ff 
    2b7f:	0f 28 85 60 fb ff ff 	movaps -0x4a0(%rbp),%xmm0
    2b86:	0f 28 8d 70 fb ff ff 	movaps -0x490(%rbp),%xmm1
    2b8d:	0f 11 84 0d 38 eb ff 	movups %xmm0,-0x14c8(%rbp,%rcx,1)
    2b94:	ff 
    2b95:	0f 11 8c 0d 48 eb ff 	movups %xmm1,-0x14b8(%rbp,%rcx,1)
    2b9c:	ff 
    2b9d:	66 0f 6f 85 80 fb ff 	movdqa -0x480(%rbp),%xmm0
    2ba4:	ff 
    2ba5:	66 0f 6f 8d 90 fb ff 	movdqa -0x470(%rbp),%xmm1
    2bac:	ff 
    2bad:	f3 0f 7f 84 0d 58 eb 	movdqu %xmm0,-0x14a8(%rbp,%rcx,1)
    2bb4:	ff ff 
    2bb6:	f3 0f 7f 8c 0d 68 eb 	movdqu %xmm1,-0x1498(%rbp,%rcx,1)
    2bbd:	ff ff 
    2bbf:	83 c0 02             	add    $0x2,%eax
    2bc2:	89 85 6c e7 ff ff    	mov    %eax,-0x1894(%rbp)
    2bc8:	48 8d bd 6c e7 ff ff 	lea    -0x1894(%rbp),%rdi
    2bcf:	48 8d b5 60 df ff ff 	lea    -0x20a0(%rbp),%rsi
    2bd6:	e8 75 0f 00 00       	call   3b50 <m16_store_inode_table>
    2bdb:	85 c0                	test   %eax,%eax
    2bdd:	0f 85 31 f2 ff ff    	jne    1e14 <m16_write_file_ex+0x314>
    2be3:	66 0f 70 85 90 f7 ff 	pshufd $0x55,-0x870(%rbp),%xmm0
    2bea:	ff 55 
    2bec:	66 41 0f 7e c7       	movd   %xmm0,%r15d
    2bf1:	41 8d 57 01          	lea    0x1(%r15),%edx
    2bf5:	48 8d b5 6c e7 ff ff 	lea    -0x1894(%rbp),%rsi
    2bfc:	4c 89 f7             	mov    %r14,%rdi
    2bff:	31 c9                	xor    %ecx,%ecx
    2c01:	e8 1a 18 00 00       	call   4420 <m16_journal_commit>
    2c06:	85 c0                	test   %eax,%eax
    2c08:	0f 85 06 f2 ff ff    	jne    1e14 <m16_write_file_ex+0x314>
    2c0e:	b8 50 00 00 00       	mov    $0x50,%eax
    2c13:	66 0f ef c0          	pxor   %xmm0,%xmm0
    2c17:	f3 0f 7f 84 05 1c e7 	movdqu %xmm0,-0x18e4(%rbp,%rax,1)
    2c1e:	ff ff 
    2c20:	f3 0f 7f 84 05 2c e7 	movdqu %xmm0,-0x18d4(%rbp,%rax,1)
    2c27:	ff ff 
    2c29:	f3 0f 7f 84 05 3c e7 	movdqu %xmm0,-0x18c4(%rbp,%rax,1)
    2c30:	ff ff 
    2c32:	f3 0f 7f 84 05 4c e7 	movdqu %xmm0,-0x18b4(%rbp,%rax,1)
    2c39:	ff ff 
    2c3b:	f3 0f 7f 84 05 5c e7 	movdqu %xmm0,-0x18a4(%rbp,%rax,1)
    2c42:	ff ff 
    2c44:	f3 0f 7f 84 05 6c e7 	movdqu %xmm0,-0x1894(%rbp,%rax,1)
    2c4b:	ff ff 
    2c4d:	48 83 c0 60          	add    $0x60,%rax
    2c51:	48 3d 70 10 00 00    	cmp    $0x1070,%rax
    2c57:	75 be                	jne    2c17 <m16_write_file_ex+0x1117>
    2c59:	c7 85 8c f7 ff ff 00 	movl   $0x0,-0x874(%rbp)
    2c60:	00 00 00 
    2c63:	8b 8d 6c e7 ff ff    	mov    -0x1894(%rbp),%ecx
    2c69:	48 83 f9 07          	cmp    $0x7,%rcx
    2c6d:	0f 87 53 fd ff ff    	ja     29c6 <m16_write_file_ex+0xec6>
    2c73:	48 89 c8             	mov    %rcx,%rax
    2c76:	48 c1 e0 09          	shl    $0x9,%rax
    2c7a:	48 8d 14 88          	lea    (%rax,%rcx,4),%rdx
    2c7e:	c7 84 15 70 e7 ff ff 	movl   $0x18,-0x1890(%rbp,%rdx,1)
    2c85:	18 00 00 00 
    2c89:	0f 28 85 a0 fd ff ff 	movaps -0x260(%rbp),%xmm0
    2c90:	0f 28 8d b0 fd ff ff 	movaps -0x250(%rbp),%xmm1
    2c97:	0f 28 95 c0 fd ff ff 	movaps -0x240(%rbp),%xmm2
    2c9e:	0f 28 9d d0 fd ff ff 	movaps -0x230(%rbp),%xmm3
    2ca5:	0f 11 84 15 74 e7 ff 	movups %xmm0,-0x188c(%rbp,%rdx,1)
    2cac:	ff 
    2cad:	0f 11 8c 15 84 e7 ff 	movups %xmm1,-0x187c(%rbp,%rdx,1)
    2cb4:	ff 
    2cb5:	0f 11 94 15 94 e7 ff 	movups %xmm2,-0x186c(%rbp,%rdx,1)
    2cbc:	ff 
    2cbd:	0f 11 9c 15 a4 e7 ff 	movups %xmm3,-0x185c(%rbp,%rdx,1)
    2cc4:	ff 
    2cc5:	0f 28 85 e0 fd ff ff 	movaps -0x220(%rbp),%xmm0
    2ccc:	0f 28 8d f0 fd ff ff 	movaps -0x210(%rbp),%xmm1
    2cd3:	0f 11 84 15 b4 e7 ff 	movups %xmm0,-0x184c(%rbp,%rdx,1)
    2cda:	ff 
    2cdb:	0f 11 8c 15 c4 e7 ff 	movups %xmm1,-0x183c(%rbp,%rdx,1)
    2ce2:	ff 
    2ce3:	0f 28 85 00 fe ff ff 	movaps -0x200(%rbp),%xmm0
    2cea:	0f 28 8d 10 fe ff ff 	movaps -0x1f0(%rbp),%xmm1
    2cf1:	0f 11 84 15 d4 e7 ff 	movups %xmm0,-0x182c(%rbp,%rdx,1)
    2cf8:	ff 
    2cf9:	0f 11 8c 15 e4 e7 ff 	movups %xmm1,-0x181c(%rbp,%rdx,1)
    2d00:	ff 
    2d01:	0f 28 85 20 fe ff ff 	movaps -0x1e0(%rbp),%xmm0
    2d08:	0f 28 8d 30 fe ff ff 	movaps -0x1d0(%rbp),%xmm1
    2d0f:	0f 11 84 15 f4 e7 ff 	movups %xmm0,-0x180c(%rbp,%rdx,1)
    2d16:	ff 
    2d17:	0f 11 8c 15 04 e8 ff 	movups %xmm1,-0x17fc(%rbp,%rdx,1)
    2d1e:	ff 
    2d1f:	0f 28 85 40 fe ff ff 	movaps -0x1c0(%rbp),%xmm0
    2d26:	0f 28 8d 50 fe ff ff 	movaps -0x1b0(%rbp),%xmm1
    2d2d:	0f 11 84 15 14 e8 ff 	movups %xmm0,-0x17ec(%rbp,%rdx,1)
    2d34:	ff 
    2d35:	0f 11 8c 15 24 e8 ff 	movups %xmm1,-0x17dc(%rbp,%rdx,1)
    2d3c:	ff 
    2d3d:	0f 28 85 60 fe ff ff 	movaps -0x1a0(%rbp),%xmm0
    2d44:	0f 28 8d 70 fe ff ff 	movaps -0x190(%rbp),%xmm1
    2d4b:	0f 11 84 15 34 e8 ff 	movups %xmm0,-0x17cc(%rbp,%rdx,1)
    2d52:	ff 
    2d53:	0f 11 8c 15 44 e8 ff 	movups %xmm1,-0x17bc(%rbp,%rdx,1)
    2d5a:	ff 
    2d5b:	0f 28 85 80 fe ff ff 	movaps -0x180(%rbp),%xmm0
    2d62:	0f 28 8d 90 fe ff ff 	movaps -0x170(%rbp),%xmm1
    2d69:	0f 11 84 15 54 e8 ff 	movups %xmm0,-0x17ac(%rbp,%rdx,1)
    2d70:	ff 
    2d71:	0f 11 8c 15 64 e8 ff 	movups %xmm1,-0x179c(%rbp,%rdx,1)
    2d78:	ff 
    2d79:	0f 28 85 a0 fe ff ff 	movaps -0x160(%rbp),%xmm0
    2d80:	0f 28 8d b0 fe ff ff 	movaps -0x150(%rbp),%xmm1
    2d87:	0f 11 84 15 74 e8 ff 	movups %xmm0,-0x178c(%rbp,%rdx,1)
    2d8e:	ff 
    2d8f:	0f 11 8c 15 84 e8 ff 	movups %xmm1,-0x177c(%rbp,%rdx,1)
    2d96:	ff 
    2d97:	0f 28 85 c0 fe ff ff 	movaps -0x140(%rbp),%xmm0
    2d9e:	0f 28 8d d0 fe ff ff 	movaps -0x130(%rbp),%xmm1
    2da5:	0f 11 84 15 94 e8 ff 	movups %xmm0,-0x176c(%rbp,%rdx,1)
    2dac:	ff 
    2dad:	0f 11 8c 15 a4 e8 ff 	movups %xmm1,-0x175c(%rbp,%rdx,1)
    2db4:	ff 
    2db5:	0f 28 85 e0 fe ff ff 	movaps -0x120(%rbp),%xmm0
    2dbc:	0f 28 8d f0 fe ff ff 	movaps -0x110(%rbp),%xmm1
    2dc3:	0f 11 84 15 b4 e8 ff 	movups %xmm0,-0x174c(%rbp,%rdx,1)
    2dca:	ff 
    2dcb:	0f 11 8c 15 c4 e8 ff 	movups %xmm1,-0x173c(%rbp,%rdx,1)
    2dd2:	ff 
    2dd3:	0f 28 85 00 ff ff ff 	movaps -0x100(%rbp),%xmm0
    2dda:	0f 28 8d 10 ff ff ff 	movaps -0xf0(%rbp),%xmm1
    2de1:	0f 11 84 15 d4 e8 ff 	movups %xmm0,-0x172c(%rbp,%rdx,1)
    2de8:	ff 
    2de9:	0f 11 8c 15 e4 e8 ff 	movups %xmm1,-0x171c(%rbp,%rdx,1)
    2df0:	ff 
    2df1:	0f 28 85 20 ff ff ff 	movaps -0xe0(%rbp),%xmm0
    2df8:	0f 28 8d 30 ff ff ff 	movaps -0xd0(%rbp),%xmm1
    2dff:	0f 11 84 15 f4 e8 ff 	movups %xmm0,-0x170c(%rbp,%rdx,1)
    2e06:	ff 
    2e07:	0f 11 8c 15 04 e9 ff 	movups %xmm1,-0x16fc(%rbp,%rdx,1)
    2e0e:	ff 
    2e0f:	0f 28 85 40 ff ff ff 	movaps -0xc0(%rbp),%xmm0
    2e16:	0f 28 8d 50 ff ff ff 	movaps -0xb0(%rbp),%xmm1
    2e1d:	0f 11 84 15 14 e9 ff 	movups %xmm0,-0x16ec(%rbp,%rdx,1)
    2e24:	ff 
    2e25:	0f 11 8c 15 24 e9 ff 	movups %xmm1,-0x16dc(%rbp,%rdx,1)
    2e2c:	ff 
    2e2d:	0f 28 85 60 ff ff ff 	movaps -0xa0(%rbp),%xmm0
    2e34:	0f 28 8d 70 ff ff ff 	movaps -0x90(%rbp),%xmm1
    2e3b:	0f 11 84 15 34 e9 ff 	movups %xmm0,-0x16cc(%rbp,%rdx,1)
    2e42:	ff 
    2e43:	0f 11 8c 15 44 e9 ff 	movups %xmm1,-0x16bc(%rbp,%rdx,1)
    2e4a:	ff 
    2e4b:	66 0f 6f 45 80       	movdqa -0x80(%rbp),%xmm0
    2e50:	66 0f 6f 4d 90       	movdqa -0x70(%rbp),%xmm1
    2e55:	f3 0f 7f 84 15 54 e9 	movdqu %xmm0,-0x16ac(%rbp,%rdx,1)
    2e5c:	ff ff 
    2e5e:	f3 0f 7f 8c 15 64 e9 	movdqu %xmm1,-0x169c(%rbp,%rdx,1)
    2e65:	ff ff 
    2e67:	b8 fd ff ff ff       	mov    $0xfffffffd,%eax
    2e6c:	83 f9 07             	cmp    $0x7,%ecx
    2e6f:	0f 84 9f ef ff ff    	je     1e14 <m16_write_file_ex+0x314>
    2e75:	48 8b 45 c0          	mov    -0x40(%rbp),%rax
    2e79:	89 84 15 74 e9 ff ff 	mov    %eax,-0x168c(%rbp,%rdx,1)
    2e80:	0f 28 85 a0 fb ff ff 	movaps -0x460(%rbp),%xmm0
    2e87:	0f 28 8d b0 fb ff ff 	movaps -0x450(%rbp),%xmm1
    2e8e:	0f 11 84 15 78 e9 ff 	movups %xmm0,-0x1688(%rbp,%rdx,1)
    2e95:	ff 
    2e96:	0f 11 8c 15 88 e9 ff 	movups %xmm1,-0x1678(%rbp,%rdx,1)
    2e9d:	ff 
    2e9e:	0f 28 85 c0 fb ff ff 	movaps -0x440(%rbp),%xmm0
    2ea5:	0f 28 8d d0 fb ff ff 	movaps -0x430(%rbp),%xmm1
    2eac:	0f 11 84 15 98 e9 ff 	movups %xmm0,-0x1668(%rbp,%rdx,1)
    2eb3:	ff 
    2eb4:	0f 11 8c 15 a8 e9 ff 	movups %xmm1,-0x1658(%rbp,%rdx,1)
    2ebb:	ff 
    2ebc:	0f 28 85 e0 fb ff ff 	movaps -0x420(%rbp),%xmm0
    2ec3:	0f 28 8d f0 fb ff ff 	movaps -0x410(%rbp),%xmm1
    2eca:	0f 11 84 15 b8 e9 ff 	movups %xmm0,-0x1648(%rbp,%rdx,1)
    2ed1:	ff 
    2ed2:	0f 11 8c 15 c8 e9 ff 	movups %xmm1,-0x1638(%rbp,%rdx,1)
    2ed9:	ff 
    2eda:	0f 28 85 00 fc ff ff 	movaps -0x400(%rbp),%xmm0
    2ee1:	0f 28 8d 10 fc ff ff 	movaps -0x3f0(%rbp),%xmm1
    2ee8:	0f 11 84 15 d8 e9 ff 	movups %xmm0,-0x1628(%rbp,%rdx,1)
    2eef:	ff 
    2ef0:	0f 11 8c 15 e8 e9 ff 	movups %xmm1,-0x1618(%rbp,%rdx,1)
    2ef7:	ff 
    2ef8:	0f 28 85 20 fc ff ff 	movaps -0x3e0(%rbp),%xmm0
    2eff:	0f 28 8d 30 fc ff ff 	movaps -0x3d0(%rbp),%xmm1
    2f06:	0f 11 84 15 f8 e9 ff 	movups %xmm0,-0x1608(%rbp,%rdx,1)
    2f0d:	ff 
    2f0e:	0f 11 8c 15 08 ea ff 	movups %xmm1,-0x15f8(%rbp,%rdx,1)
    2f15:	ff 
    2f16:	0f 28 85 40 fc ff ff 	movaps -0x3c0(%rbp),%xmm0
    2f1d:	0f 28 8d 50 fc ff ff 	movaps -0x3b0(%rbp),%xmm1
    2f24:	0f 11 84 15 18 ea ff 	movups %xmm0,-0x15e8(%rbp,%rdx,1)
    2f2b:	ff 
    2f2c:	0f 11 8c 15 28 ea ff 	movups %xmm1,-0x15d8(%rbp,%rdx,1)
    2f33:	ff 
    2f34:	0f 28 85 60 fc ff ff 	movaps -0x3a0(%rbp),%xmm0
    2f3b:	0f 28 8d 70 fc ff ff 	movaps -0x390(%rbp),%xmm1
    2f42:	0f 11 84 15 38 ea ff 	movups %xmm0,-0x15c8(%rbp,%rdx,1)
    2f49:	ff 
    2f4a:	0f 11 8c 15 48 ea ff 	movups %xmm1,-0x15b8(%rbp,%rdx,1)
    2f51:	ff 
    2f52:	0f 28 85 80 fc ff ff 	movaps -0x380(%rbp),%xmm0
    2f59:	0f 28 8d 90 fc ff ff 	movaps -0x370(%rbp),%xmm1
    2f60:	0f 11 84 15 58 ea ff 	movups %xmm0,-0x15a8(%rbp,%rdx,1)
    2f67:	ff 
    2f68:	0f 11 8c 15 68 ea ff 	movups %xmm1,-0x1598(%rbp,%rdx,1)
    2f6f:	ff 
    2f70:	0f 28 85 a0 fc ff ff 	movaps -0x360(%rbp),%xmm0
    2f77:	0f 28 8d b0 fc ff ff 	movaps -0x350(%rbp),%xmm1
    2f7e:	0f 11 84 15 78 ea ff 	movups %xmm0,-0x1588(%rbp,%rdx,1)
    2f85:	ff 
    2f86:	0f 11 8c 15 88 ea ff 	movups %xmm1,-0x1578(%rbp,%rdx,1)
    2f8d:	ff 
    2f8e:	0f 28 85 c0 fc ff ff 	movaps -0x340(%rbp),%xmm0
    2f95:	0f 28 8d d0 fc ff ff 	movaps -0x330(%rbp),%xmm1
    2f9c:	0f 11 84 15 98 ea ff 	movups %xmm0,-0x1568(%rbp,%rdx,1)
    2fa3:	ff 
    2fa4:	0f 11 8c 15 a8 ea ff 	movups %xmm1,-0x1558(%rbp,%rdx,1)
    2fab:	ff 
    2fac:	0f 28 85 e0 fc ff ff 	movaps -0x320(%rbp),%xmm0
    2fb3:	0f 28 8d f0 fc ff ff 	movaps -0x310(%rbp),%xmm1
    2fba:	0f 11 84 15 b8 ea ff 	movups %xmm0,-0x1548(%rbp,%rdx,1)
    2fc1:	ff 
    2fc2:	0f 11 8c 15 c8 ea ff 	movups %xmm1,-0x1538(%rbp,%rdx,1)
    2fc9:	ff 
    2fca:	0f 28 85 00 fd ff ff 	movaps -0x300(%rbp),%xmm0
    2fd1:	0f 28 8d 10 fd ff ff 	movaps -0x2f0(%rbp),%xmm1
    2fd8:	0f 11 84 15 d8 ea ff 	movups %xmm0,-0x1528(%rbp,%rdx,1)
    2fdf:	ff 
    2fe0:	0f 11 8c 15 e8 ea ff 	movups %xmm1,-0x1518(%rbp,%rdx,1)
    2fe7:	ff 
    2fe8:	0f 28 85 20 fd ff ff 	movaps -0x2e0(%rbp),%xmm0
    2fef:	0f 28 8d 30 fd ff ff 	movaps -0x2d0(%rbp),%xmm1
    2ff6:	0f 11 84 15 f8 ea ff 	movups %xmm0,-0x1508(%rbp,%rdx,1)
    2ffd:	ff 
    2ffe:	0f 11 8c 15 08 eb ff 	movups %xmm1,-0x14f8(%rbp,%rdx,1)
    3005:	ff 
    3006:	0f 28 85 40 fd ff ff 	movaps -0x2c0(%rbp),%xmm0
    300d:	0f 28 8d 50 fd ff ff 	movaps -0x2b0(%rbp),%xmm1
    3014:	0f 11 84 15 18 eb ff 	movups %xmm0,-0x14e8(%rbp,%rdx,1)
    301b:	ff 
    301c:	0f 11 8c 15 28 eb ff 	movups %xmm1,-0x14d8(%rbp,%rdx,1)
    3023:	ff 
    3024:	0f 28 85 60 fd ff ff 	movaps -0x2a0(%rbp),%xmm0
    302b:	0f 28 8d 70 fd ff ff 	movaps -0x290(%rbp),%xmm1
    3032:	0f 11 84 15 38 eb ff 	movups %xmm0,-0x14c8(%rbp,%rdx,1)
    3039:	ff 
    303a:	0f 11 8c 15 48 eb ff 	movups %xmm1,-0x14b8(%rbp,%rdx,1)
    3041:	ff 
    3042:	66 0f 6f 85 80 fd ff 	movdqa -0x280(%rbp),%xmm0
    3049:	ff 
    304a:	66 0f 6f 8d 90 fd ff 	movdqa -0x270(%rbp),%xmm1
    3051:	ff 
    3052:	f3 0f 7f 84 15 58 eb 	movdqu %xmm0,-0x14a8(%rbp,%rdx,1)
    3059:	ff ff 
    305b:	f3 0f 7f 8c 15 68 eb 	movdqu %xmm1,-0x1498(%rbp,%rdx,1)
    3062:	ff ff 
    3064:	83 c1 02             	add    $0x2,%ecx
    3067:	89 8d 6c e7 ff ff    	mov    %ecx,-0x1894(%rbp)
    306d:	41 83 c7 02          	add    $0x2,%r15d
    3071:	48 8d b5 6c e7 ff ff 	lea    -0x1894(%rbp),%rsi
    3078:	4c 89 f7             	mov    %r14,%rdi
    307b:	44 89 fa             	mov    %r15d,%edx
    307e:	8b 4d b4             	mov    -0x4c(%rbp),%ecx
    3081:	e8 9a 13 00 00       	call   4420 <m16_journal_commit>
    3086:	e9 89 ed ff ff       	jmp    1e14 <m16_write_file_ex+0x314>
    308b:	0f 1f 44 00 00       	nopl   0x0(%rax,%rax,1)

0000000000003090 <m16_load_inode_table>:
    3090:	55                   	push   %rbp
    3091:	48 89 e5             	mov    %rsp,%rbp
    3094:	b8 ff ff ff ff       	mov    $0xffffffff,%eax
    3099:	48 85 f6             	test   %rsi,%rsi
    309c:	74 73                	je     3111 <m16_load_inode_table+0x81>
    309e:	83 bf 00 00 01 00 15 	cmpl   $0x15,0x10000(%rdi)
    30a5:	72 6a                	jb     3111 <m16_load_inode_table+0x81>
    30a7:	48 89 f1             	mov    %rsi,%rcx
    30aa:	48 29 f9             	sub    %rdi,%rcx
    30ad:	48 81 c1 00 d8 ff ff 	add    $0xffffffffffffd800,%rcx
    30b4:	48 83 f9 1f          	cmp    $0x1f,%rcx
    30b8:	77 59                	ja     3113 <m16_load_inode_table+0x83>
    30ba:	31 d2                	xor    %edx,%edx
    30bc:	0f 1f 40 00          	nopl   0x0(%rax)
    30c0:	44 0f b6 84 17 00 28 	movzbl 0x2800(%rdi,%rdx,1),%r8d
    30c7:	00 00 
    30c9:	44 88 04 16          	mov    %r8b,(%rsi,%rdx,1)
    30cd:	44 0f b6 84 17 01 28 	movzbl 0x2801(%rdi,%rdx,1),%r8d
    30d4:	00 00 
    30d6:	44 88 44 16 01       	mov    %r8b,0x1(%rsi,%rdx,1)
    30db:	44 0f b6 84 17 02 28 	movzbl 0x2802(%rdi,%rdx,1),%r8d
    30e2:	00 00 
    30e4:	44 88 44 16 02       	mov    %r8b,0x2(%rsi,%rdx,1)
    30e9:	44 0f b6 84 17 03 28 	movzbl 0x2803(%rdi,%rdx,1),%r8d
    30f0:	00 00 
    30f2:	44 88 44 16 03       	mov    %r8b,0x3(%rsi,%rdx,1)
    30f7:	48 83 c2 04          	add    $0x4,%rdx
    30fb:	48 81 fa 00 02 00 00 	cmp    $0x200,%rdx
    3102:	75 bc                	jne    30c0 <m16_load_inode_table+0x30>
    3104:	83 bf 00 00 01 00 16 	cmpl   $0x16,0x10000(%rdi)
    310b:	0f 83 b6 01 00 00    	jae    32c7 <m16_load_inode_table+0x237>
    3111:	5d                   	pop    %rbp
    3112:	c3                   	ret
    3113:	0f 10 87 00 28 00 00 	movups 0x2800(%rdi),%xmm0
    311a:	0f 10 8f 10 28 00 00 	movups 0x2810(%rdi),%xmm1
    3121:	0f 11 06             	movups %xmm0,(%rsi)
    3124:	0f 11 4e 10          	movups %xmm1,0x10(%rsi)
    3128:	0f 10 87 20 28 00 00 	movups 0x2820(%rdi),%xmm0
    312f:	0f 10 8f 30 28 00 00 	movups 0x2830(%rdi),%xmm1
    3136:	0f 11 46 20          	movups %xmm0,0x20(%rsi)
    313a:	0f 11 4e 30          	movups %xmm1,0x30(%rsi)
    313e:	0f 10 87 40 28 00 00 	movups 0x2840(%rdi),%xmm0
    3145:	0f 10 8f 50 28 00 00 	movups 0x2850(%rdi),%xmm1
    314c:	0f 11 46 40          	movups %xmm0,0x40(%rsi)
    3150:	0f 11 4e 50          	movups %xmm1,0x50(%rsi)
    3154:	0f 10 87 60 28 00 00 	movups 0x2860(%rdi),%xmm0
    315b:	0f 10 8f 70 28 00 00 	movups 0x2870(%rdi),%xmm1
    3162:	0f 11 46 60          	movups %xmm0,0x60(%rsi)
    3166:	0f 11 4e 70          	movups %xmm1,0x70(%rsi)
    316a:	0f 10 87 80 28 00 00 	movups 0x2880(%rdi),%xmm0
    3171:	0f 10 8f 90 28 00 00 	movups 0x2890(%rdi),%xmm1
    3178:	0f 11 86 80 00 00 00 	movups %xmm0,0x80(%rsi)
    317f:	0f 11 8e 90 00 00 00 	movups %xmm1,0x90(%rsi)
    3186:	0f 10 87 a0 28 00 00 	movups 0x28a0(%rdi),%xmm0
    318d:	0f 10 8f b0 28 00 00 	movups 0x28b0(%rdi),%xmm1
    3194:	0f 11 86 a0 00 00 00 	movups %xmm0,0xa0(%rsi)
    319b:	0f 11 8e b0 00 00 00 	movups %xmm1,0xb0(%rsi)
    31a2:	0f 10 87 c0 28 00 00 	movups 0x28c0(%rdi),%xmm0
    31a9:	0f 10 8f d0 28 00 00 	movups 0x28d0(%rdi),%xmm1
    31b0:	0f 11 86 c0 00 00 00 	movups %xmm0,0xc0(%rsi)
    31b7:	0f 11 8e d0 00 00 00 	movups %xmm1,0xd0(%rsi)
    31be:	0f 10 87 e0 28 00 00 	movups 0x28e0(%rdi),%xmm0
    31c5:	0f 10 8f f0 28 00 00 	movups 0x28f0(%rdi),%xmm1
    31cc:	0f 11 86 e0 00 00 00 	movups %xmm0,0xe0(%rsi)
    31d3:	0f 11 8e f0 00 00 00 	movups %xmm1,0xf0(%rsi)
    31da:	0f 10 87 00 29 00 00 	movups 0x2900(%rdi),%xmm0
    31e1:	0f 10 8f 10 29 00 00 	movups 0x2910(%rdi),%xmm1
    31e8:	0f 11 86 00 01 00 00 	movups %xmm0,0x100(%rsi)
    31ef:	0f 11 8e 10 01 00 00 	movups %xmm1,0x110(%rsi)
    31f6:	0f 10 87 20 29 00 00 	movups 0x2920(%rdi),%xmm0
    31fd:	0f 10 8f 30 29 00 00 	movups 0x2930(%rdi),%xmm1
    3204:	0f 11 86 20 01 00 00 	movups %xmm0,0x120(%rsi)
    320b:	0f 11 8e 30 01 00 00 	movups %xmm1,0x130(%rsi)
    3212:	0f 10 87 40 29 00 00 	movups 0x2940(%rdi),%xmm0
    3219:	0f 10 8f 50 29 00 00 	movups 0x2950(%rdi),%xmm1
    3220:	0f 11 86 40 01 00 00 	movups %xmm0,0x140(%rsi)
    3227:	0f 11 8e 50 01 00 00 	movups %xmm1,0x150(%rsi)
    322e:	0f 10 87 60 29 00 00 	movups 0x2960(%rdi),%xmm0
    3235:	0f 10 8f 70 29 00 00 	movups 0x2970(%rdi),%xmm1
    323c:	0f 11 86 60 01 00 00 	movups %xmm0,0x160(%rsi)
    3243:	0f 11 8e 70 01 00 00 	movups %xmm1,0x170(%rsi)
    324a:	0f 10 87 80 29 00 00 	movups 0x2980(%rdi),%xmm0
    3251:	0f 10 8f 90 29 00 00 	movups 0x2990(%rdi),%xmm1
    3258:	0f 11 86 80 01 00 00 	movups %xmm0,0x180(%rsi)
    325f:	0f 11 8e 90 01 00 00 	movups %xmm1,0x190(%rsi)
    3266:	0f 10 87 a0 29 00 00 	movups 0x29a0(%rdi),%xmm0
    326d:	0f 10 8f b0 29 00 00 	movups 0x29b0(%rdi),%xmm1
    3274:	0f 11 86 a0 01 00 00 	movups %xmm0,0x1a0(%rsi)
    327b:	0f 11 8e b0 01 00 00 	movups %xmm1,0x1b0(%rsi)
    3282:	0f 10 87 c0 29 00 00 	movups 0x29c0(%rdi),%xmm0
    3289:	0f 10 8f d0 29 00 00 	movups 0x29d0(%rdi),%xmm1
    3290:	0f 11 86 c0 01 00 00 	movups %xmm0,0x1c0(%rsi)
    3297:	0f 11 8e d0 01 00 00 	movups %xmm1,0x1d0(%rsi)
    329e:	0f 10 87 e0 29 00 00 	movups 0x29e0(%rdi),%xmm0
    32a5:	0f 10 8f f0 29 00 00 	movups 0x29f0(%rdi),%xmm1
    32ac:	0f 11 86 e0 01 00 00 	movups %xmm0,0x1e0(%rsi)
    32b3:	0f 11 8e f0 01 00 00 	movups %xmm1,0x1f0(%rsi)
    32ba:	83 bf 00 00 01 00 16 	cmpl   $0x16,0x10000(%rdi)
    32c1:	0f 82 4a fe ff ff    	jb     3111 <m16_load_inode_table+0x81>
    32c7:	48 83 f9 1f          	cmp    $0x1f,%rcx
    32cb:	77 66                	ja     3333 <m16_load_inode_table+0x2a3>
    32cd:	31 d2                	xor    %edx,%edx
    32cf:	90                   	nop
    32d0:	44 0f b6 84 17 00 2a 	movzbl 0x2a00(%rdi,%rdx,1),%r8d
    32d7:	00 00 
    32d9:	44 88 84 16 00 02 00 	mov    %r8b,0x200(%rsi,%rdx,1)
    32e0:	00 
    32e1:	44 0f b6 84 17 01 2a 	movzbl 0x2a01(%rdi,%rdx,1),%r8d
    32e8:	00 00 
    32ea:	44 88 84 16 01 02 00 	mov    %r8b,0x201(%rsi,%rdx,1)
    32f1:	00 
    32f2:	44 0f b6 84 17 02 2a 	movzbl 0x2a02(%rdi,%rdx,1),%r8d
    32f9:	00 00 
    32fb:	44 88 84 16 02 02 00 	mov    %r8b,0x202(%rsi,%rdx,1)
    3302:	00 
    3303:	44 0f b6 84 17 03 2a 	movzbl 0x2a03(%rdi,%rdx,1),%r8d
    330a:	00 00 
    330c:	44 88 84 16 03 02 00 	mov    %r8b,0x203(%rsi,%rdx,1)
    3313:	00 
    3314:	48 83 c2 04          	add    $0x4,%rdx
    3318:	48 81 fa 00 02 00 00 	cmp    $0x200,%rdx
    331f:	75 af                	jne    32d0 <m16_load_inode_table+0x240>
    3321:	83 bf 00 00 01 00 17 	cmpl   $0x17,0x10000(%rdi)
    3328:	0f 83 d2 01 00 00    	jae    3500 <m16_load_inode_table+0x470>
    332e:	e9 de fd ff ff       	jmp    3111 <m16_load_inode_table+0x81>
    3333:	0f 10 87 00 2a 00 00 	movups 0x2a00(%rdi),%xmm0
    333a:	0f 10 8f 10 2a 00 00 	movups 0x2a10(%rdi),%xmm1
    3341:	0f 11 86 00 02 00 00 	movups %xmm0,0x200(%rsi)
    3348:	0f 11 8e 10 02 00 00 	movups %xmm1,0x210(%rsi)
    334f:	0f 10 87 20 2a 00 00 	movups 0x2a20(%rdi),%xmm0
    3356:	0f 10 8f 30 2a 00 00 	movups 0x2a30(%rdi),%xmm1
    335d:	0f 11 86 20 02 00 00 	movups %xmm0,0x220(%rsi)
    3364:	0f 11 8e 30 02 00 00 	movups %xmm1,0x230(%rsi)
    336b:	0f 10 87 40 2a 00 00 	movups 0x2a40(%rdi),%xmm0
    3372:	0f 10 8f 50 2a 00 00 	movups 0x2a50(%rdi),%xmm1
    3379:	0f 11 86 40 02 00 00 	movups %xmm0,0x240(%rsi)
    3380:	0f 11 8e 50 02 00 00 	movups %xmm1,0x250(%rsi)
    3387:	0f 10 87 60 2a 00 00 	movups 0x2a60(%rdi),%xmm0
    338e:	0f 10 8f 70 2a 00 00 	movups 0x2a70(%rdi),%xmm1
    3395:	0f 11 86 60 02 00 00 	movups %xmm0,0x260(%rsi)
    339c:	0f 11 8e 70 02 00 00 	movups %xmm1,0x270(%rsi)
    33a3:	0f 10 87 80 2a 00 00 	movups 0x2a80(%rdi),%xmm0
    33aa:	0f 10 8f 90 2a 00 00 	movups 0x2a90(%rdi),%xmm1
    33b1:	0f 11 86 80 02 00 00 	movups %xmm0,0x280(%rsi)
    33b8:	0f 11 8e 90 02 00 00 	movups %xmm1,0x290(%rsi)
    33bf:	0f 10 87 a0 2a 00 00 	movups 0x2aa0(%rdi),%xmm0
    33c6:	0f 10 8f b0 2a 00 00 	movups 0x2ab0(%rdi),%xmm1
    33cd:	0f 11 86 a0 02 00 00 	movups %xmm0,0x2a0(%rsi)
    33d4:	0f 11 8e b0 02 00 00 	movups %xmm1,0x2b0(%rsi)
    33db:	0f 10 87 c0 2a 00 00 	movups 0x2ac0(%rdi),%xmm0
    33e2:	0f 10 8f d0 2a 00 00 	movups 0x2ad0(%rdi),%xmm1
    33e9:	0f 11 86 c0 02 00 00 	movups %xmm0,0x2c0(%rsi)
    33f0:	0f 11 8e d0 02 00 00 	movups %xmm1,0x2d0(%rsi)
    33f7:	0f 10 87 e0 2a 00 00 	movups 0x2ae0(%rdi),%xmm0
    33fe:	0f 10 8f f0 2a 00 00 	movups 0x2af0(%rdi),%xmm1
    3405:	0f 11 86 e0 02 00 00 	movups %xmm0,0x2e0(%rsi)
    340c:	0f 11 8e f0 02 00 00 	movups %xmm1,0x2f0(%rsi)
    3413:	0f 10 87 00 2b 00 00 	movups 0x2b00(%rdi),%xmm0
    341a:	0f 10 8f 10 2b 00 00 	movups 0x2b10(%rdi),%xmm1
    3421:	0f 11 86 00 03 00 00 	movups %xmm0,0x300(%rsi)
    3428:	0f 11 8e 10 03 00 00 	movups %xmm1,0x310(%rsi)
    342f:	0f 10 87 20 2b 00 00 	movups 0x2b20(%rdi),%xmm0
    3436:	0f 10 8f 30 2b 00 00 	movups 0x2b30(%rdi),%xmm1
    343d:	0f 11 86 20 03 00 00 	movups %xmm0,0x320(%rsi)
    3444:	0f 11 8e 30 03 00 00 	movups %xmm1,0x330(%rsi)
    344b:	0f 10 87 40 2b 00 00 	movups 0x2b40(%rdi),%xmm0
    3452:	0f 10 8f 50 2b 00 00 	movups 0x2b50(%rdi),%xmm1
    3459:	0f 11 86 40 03 00 00 	movups %xmm0,0x340(%rsi)
    3460:	0f 11 8e 50 03 00 00 	movups %xmm1,0x350(%rsi)
    3467:	0f 10 87 60 2b 00 00 	movups 0x2b60(%rdi),%xmm0
    346e:	0f 10 8f 70 2b 00 00 	movups 0x2b70(%rdi),%xmm1
    3475:	0f 11 86 60 03 00 00 	movups %xmm0,0x360(%rsi)
    347c:	0f 11 8e 70 03 00 00 	movups %xmm1,0x370(%rsi)
    3483:	0f 10 87 80 2b 00 00 	movups 0x2b80(%rdi),%xmm0
    348a:	0f 10 8f 90 2b 00 00 	movups 0x2b90(%rdi),%xmm1
    3491:	0f 11 86 80 03 00 00 	movups %xmm0,0x380(%rsi)
    3498:	0f 11 8e 90 03 00 00 	movups %xmm1,0x390(%rsi)
    349f:	0f 10 87 a0 2b 00 00 	movups 0x2ba0(%rdi),%xmm0
    34a6:	0f 10 8f b0 2b 00 00 	movups 0x2bb0(%rdi),%xmm1
    34ad:	0f 11 86 a0 03 00 00 	movups %xmm0,0x3a0(%rsi)
    34b4:	0f 11 8e b0 03 00 00 	movups %xmm1,0x3b0(%rsi)
    34bb:	0f 10 87 c0 2b 00 00 	movups 0x2bc0(%rdi),%xmm0
    34c2:	0f 10 8f d0 2b 00 00 	movups 0x2bd0(%rdi),%xmm1
    34c9:	0f 11 86 c0 03 00 00 	movups %xmm0,0x3c0(%rsi)
    34d0:	0f 11 8e d0 03 00 00 	movups %xmm1,0x3d0(%rsi)
    34d7:	0f 10 87 e0 2b 00 00 	movups 0x2be0(%rdi),%xmm0
    34de:	0f 10 8f f0 2b 00 00 	movups 0x2bf0(%rdi),%xmm1
    34e5:	0f 11 86 e0 03 00 00 	movups %xmm0,0x3e0(%rsi)
    34ec:	0f 11 8e f0 03 00 00 	movups %xmm1,0x3f0(%rsi)
    34f3:	83 bf 00 00 01 00 17 	cmpl   $0x17,0x10000(%rdi)
    34fa:	0f 82 11 fc ff ff    	jb     3111 <m16_load_inode_table+0x81>
    3500:	48 83 f9 1f          	cmp    $0x1f,%rcx
    3504:	77 6d                	ja     3573 <m16_load_inode_table+0x4e3>
    3506:	31 d2                	xor    %edx,%edx
    3508:	0f 1f 84 00 00 00 00 	nopl   0x0(%rax,%rax,1)
    350f:	00 
    3510:	44 0f b6 84 17 00 2c 	movzbl 0x2c00(%rdi,%rdx,1),%r8d
    3517:	00 00 
    3519:	44 88 84 16 00 04 00 	mov    %r8b,0x400(%rsi,%rdx,1)
    3520:	00 
    3521:	44 0f b6 84 17 01 2c 	movzbl 0x2c01(%rdi,%rdx,1),%r8d
    3528:	00 00 
    352a:	44 88 84 16 01 04 00 	mov    %r8b,0x401(%rsi,%rdx,1)
    3531:	00 
    3532:	44 0f b6 84 17 02 2c 	movzbl 0x2c02(%rdi,%rdx,1),%r8d
    3539:	00 00 
    353b:	44 88 84 16 02 04 00 	mov    %r8b,0x402(%rsi,%rdx,1)
    3542:	00 
    3543:	44 0f b6 84 17 03 2c 	movzbl 0x2c03(%rdi,%rdx,1),%r8d
    354a:	00 00 
    354c:	44 88 84 16 03 04 00 	mov    %r8b,0x403(%rsi,%rdx,1)
    3553:	00 
    3554:	48 83 c2 04          	add    $0x4,%rdx
    3558:	48 81 fa 00 02 00 00 	cmp    $0x200,%rdx
    355f:	75 af                	jne    3510 <m16_load_inode_table+0x480>
    3561:	83 bf 00 00 01 00 18 	cmpl   $0x18,0x10000(%rdi)
    3568:	0f 83 d2 01 00 00    	jae    3740 <m16_load_inode_table+0x6b0>
    356e:	e9 9e fb ff ff       	jmp    3111 <m16_load_inode_table+0x81>
    3573:	0f 10 87 00 2c 00 00 	movups 0x2c00(%rdi),%xmm0
    357a:	0f 10 8f 10 2c 00 00 	movups 0x2c10(%rdi),%xmm1
    3581:	0f 11 86 00 04 00 00 	movups %xmm0,0x400(%rsi)
    3588:	0f 11 8e 10 04 00 00 	movups %xmm1,0x410(%rsi)
    358f:	0f 10 87 20 2c 00 00 	movups 0x2c20(%rdi),%xmm0
    3596:	0f 10 8f 30 2c 00 00 	movups 0x2c30(%rdi),%xmm1
    359d:	0f 11 86 20 04 00 00 	movups %xmm0,0x420(%rsi)
    35a4:	0f 11 8e 30 04 00 00 	movups %xmm1,0x430(%rsi)
    35ab:	0f 10 87 40 2c 00 00 	movups 0x2c40(%rdi),%xmm0
    35b2:	0f 10 8f 50 2c 00 00 	movups 0x2c50(%rdi),%xmm1
    35b9:	0f 11 86 40 04 00 00 	movups %xmm0,0x440(%rsi)
    35c0:	0f 11 8e 50 04 00 00 	movups %xmm1,0x450(%rsi)
    35c7:	0f 10 87 60 2c 00 00 	movups 0x2c60(%rdi),%xmm0
    35ce:	0f 10 8f 70 2c 00 00 	movups 0x2c70(%rdi),%xmm1
    35d5:	0f 11 86 60 04 00 00 	movups %xmm0,0x460(%rsi)
    35dc:	0f 11 8e 70 04 00 00 	movups %xmm1,0x470(%rsi)
    35e3:	0f 10 87 80 2c 00 00 	movups 0x2c80(%rdi),%xmm0
    35ea:	0f 10 8f 90 2c 00 00 	movups 0x2c90(%rdi),%xmm1
    35f1:	0f 11 86 80 04 00 00 	movups %xmm0,0x480(%rsi)
    35f8:	0f 11 8e 90 04 00 00 	movups %xmm1,0x490(%rsi)
    35ff:	0f 10 87 a0 2c 00 00 	movups 0x2ca0(%rdi),%xmm0
    3606:	0f 10 8f b0 2c 00 00 	movups 0x2cb0(%rdi),%xmm1
    360d:	0f 11 86 a0 04 00 00 	movups %xmm0,0x4a0(%rsi)
    3614:	0f 11 8e b0 04 00 00 	movups %xmm1,0x4b0(%rsi)
    361b:	0f 10 87 c0 2c 00 00 	movups 0x2cc0(%rdi),%xmm0
    3622:	0f 10 8f d0 2c 00 00 	movups 0x2cd0(%rdi),%xmm1
    3629:	0f 11 86 c0 04 00 00 	movups %xmm0,0x4c0(%rsi)
    3630:	0f 11 8e d0 04 00 00 	movups %xmm1,0x4d0(%rsi)
    3637:	0f 10 87 e0 2c 00 00 	movups 0x2ce0(%rdi),%xmm0
    363e:	0f 10 8f f0 2c 00 00 	movups 0x2cf0(%rdi),%xmm1
    3645:	0f 11 86 e0 04 00 00 	movups %xmm0,0x4e0(%rsi)
    364c:	0f 11 8e f0 04 00 00 	movups %xmm1,0x4f0(%rsi)
    3653:	0f 10 87 00 2d 00 00 	movups 0x2d00(%rdi),%xmm0
    365a:	0f 10 8f 10 2d 00 00 	movups 0x2d10(%rdi),%xmm1
    3661:	0f 11 86 00 05 00 00 	movups %xmm0,0x500(%rsi)
    3668:	0f 11 8e 10 05 00 00 	movups %xmm1,0x510(%rsi)
    366f:	0f 10 87 20 2d 00 00 	movups 0x2d20(%rdi),%xmm0
    3676:	0f 10 8f 30 2d 00 00 	movups 0x2d30(%rdi),%xmm1
    367d:	0f 11 86 20 05 00 00 	movups %xmm0,0x520(%rsi)
    3684:	0f 11 8e 30 05 00 00 	movups %xmm1,0x530(%rsi)
    368b:	0f 10 87 40 2d 00 00 	movups 0x2d40(%rdi),%xmm0
    3692:	0f 10 8f 50 2d 00 00 	movups 0x2d50(%rdi),%xmm1
    3699:	0f 11 86 40 05 00 00 	movups %xmm0,0x540(%rsi)
    36a0:	0f 11 8e 50 05 00 00 	movups %xmm1,0x550(%rsi)
    36a7:	0f 10 87 60 2d 00 00 	movups 0x2d60(%rdi),%xmm0
    36ae:	0f 10 8f 70 2d 00 00 	movups 0x2d70(%rdi),%xmm1
    36b5:	0f 11 86 60 05 00 00 	movups %xmm0,0x560(%rsi)
    36bc:	0f 11 8e 70 05 00 00 	movups %xmm1,0x570(%rsi)
    36c3:	0f 10 87 80 2d 00 00 	movups 0x2d80(%rdi),%xmm0
    36ca:	0f 10 8f 90 2d 00 00 	movups 0x2d90(%rdi),%xmm1
    36d1:	0f 11 86 80 05 00 00 	movups %xmm0,0x580(%rsi)
    36d8:	0f 11 8e 90 05 00 00 	movups %xmm1,0x590(%rsi)
    36df:	0f 10 87 a0 2d 00 00 	movups 0x2da0(%rdi),%xmm0
    36e6:	0f 10 8f b0 2d 00 00 	movups 0x2db0(%rdi),%xmm1
    36ed:	0f 11 86 a0 05 00 00 	movups %xmm0,0x5a0(%rsi)
    36f4:	0f 11 8e b0 05 00 00 	movups %xmm1,0x5b0(%rsi)
    36fb:	0f 10 87 c0 2d 00 00 	movups 0x2dc0(%rdi),%xmm0
    3702:	0f 10 8f d0 2d 00 00 	movups 0x2dd0(%rdi),%xmm1
    3709:	0f 11 86 c0 05 00 00 	movups %xmm0,0x5c0(%rsi)
    3710:	0f 11 8e d0 05 00 00 	movups %xmm1,0x5d0(%rsi)
    3717:	0f 10 87 e0 2d 00 00 	movups 0x2de0(%rdi),%xmm0
    371e:	0f 10 8f f0 2d 00 00 	movups 0x2df0(%rdi),%xmm1
    3725:	0f 11 86 e0 05 00 00 	movups %xmm0,0x5e0(%rsi)
    372c:	0f 11 8e f0 05 00 00 	movups %xmm1,0x5f0(%rsi)
    3733:	83 bf 00 00 01 00 18 	cmpl   $0x18,0x10000(%rdi)
    373a:	0f 82 d1 f9 ff ff    	jb     3111 <m16_load_inode_table+0x81>
    3740:	48 83 f9 1f          	cmp    $0x1f,%rcx
    3744:	77 58                	ja     379e <m16_load_inode_table+0x70e>
    3746:	31 c0                	xor    %eax,%eax
    3748:	31 c9                	xor    %ecx,%ecx
    374a:	66 0f 1f 44 00 00    	nopw   0x0(%rax,%rax,1)
    3750:	0f b6 94 0f 00 2e 00 	movzbl 0x2e00(%rdi,%rcx,1),%edx
    3757:	00 
    3758:	88 94 0e 00 06 00 00 	mov    %dl,0x600(%rsi,%rcx,1)
    375f:	0f b6 94 0f 01 2e 00 	movzbl 0x2e01(%rdi,%rcx,1),%edx
    3766:	00 
    3767:	88 94 0e 01 06 00 00 	mov    %dl,0x601(%rsi,%rcx,1)
    376e:	0f b6 94 0f 02 2e 00 	movzbl 0x2e02(%rdi,%rcx,1),%edx
    3775:	00 
    3776:	88 94 0e 02 06 00 00 	mov    %dl,0x602(%rsi,%rcx,1)
    377d:	0f b6 94 0f 03 2e 00 	movzbl 0x2e03(%rdi,%rcx,1),%edx
    3784:	00 
    3785:	88 94 0e 03 06 00 00 	mov    %dl,0x603(%rsi,%rcx,1)
    378c:	48 83 c1 04          	add    $0x4,%rcx
    3790:	48 81 f9 00 02 00 00 	cmp    $0x200,%rcx
    3797:	75 b7                	jne    3750 <m16_load_inode_table+0x6c0>
    3799:	e9 73 f9 ff ff       	jmp    3111 <m16_load_inode_table+0x81>
    379e:	0f 10 87 00 2e 00 00 	movups 0x2e00(%rdi),%xmm0
    37a5:	0f 10 8f 10 2e 00 00 	movups 0x2e10(%rdi),%xmm1
    37ac:	0f 11 86 00 06 00 00 	movups %xmm0,0x600(%rsi)
    37b3:	0f 11 8e 10 06 00 00 	movups %xmm1,0x610(%rsi)
    37ba:	0f 10 87 20 2e 00 00 	movups 0x2e20(%rdi),%xmm0
    37c1:	0f 10 8f 30 2e 00 00 	movups 0x2e30(%rdi),%xmm1
    37c8:	0f 11 86 20 06 00 00 	movups %xmm0,0x620(%rsi)
    37cf:	0f 11 8e 30 06 00 00 	movups %xmm1,0x630(%rsi)
    37d6:	0f 10 87 40 2e 00 00 	movups 0x2e40(%rdi),%xmm0
    37dd:	0f 10 8f 50 2e 00 00 	movups 0x2e50(%rdi),%xmm1
    37e4:	0f 11 86 40 06 00 00 	movups %xmm0,0x640(%rsi)
    37eb:	0f 11 8e 50 06 00 00 	movups %xmm1,0x650(%rsi)
    37f2:	0f 10 87 60 2e 00 00 	movups 0x2e60(%rdi),%xmm0
    37f9:	0f 10 8f 70 2e 00 00 	movups 0x2e70(%rdi),%xmm1
    3800:	0f 11 86 60 06 00 00 	movups %xmm0,0x660(%rsi)
    3807:	0f 11 8e 70 06 00 00 	movups %xmm1,0x670(%rsi)
    380e:	0f 10 87 80 2e 00 00 	movups 0x2e80(%rdi),%xmm0
    3815:	0f 10 8f 90 2e 00 00 	movups 0x2e90(%rdi),%xmm1
    381c:	0f 11 86 80 06 00 00 	movups %xmm0,0x680(%rsi)
    3823:	0f 11 8e 90 06 00 00 	movups %xmm1,0x690(%rsi)
    382a:	0f 10 87 a0 2e 00 00 	movups 0x2ea0(%rdi),%xmm0
    3831:	0f 10 8f b0 2e 00 00 	movups 0x2eb0(%rdi),%xmm1
    3838:	0f 11 86 a0 06 00 00 	movups %xmm0,0x6a0(%rsi)
    383f:	0f 11 8e b0 06 00 00 	movups %xmm1,0x6b0(%rsi)
    3846:	0f 10 87 c0 2e 00 00 	movups 0x2ec0(%rdi),%xmm0
    384d:	0f 10 8f d0 2e 00 00 	movups 0x2ed0(%rdi),%xmm1
    3854:	0f 11 86 c0 06 00 00 	movups %xmm0,0x6c0(%rsi)
    385b:	0f 11 8e d0 06 00 00 	movups %xmm1,0x6d0(%rsi)
    3862:	0f 10 87 e0 2e 00 00 	movups 0x2ee0(%rdi),%xmm0
    3869:	0f 10 8f f0 2e 00 00 	movups 0x2ef0(%rdi),%xmm1
    3870:	0f 11 86 e0 06 00 00 	movups %xmm0,0x6e0(%rsi)
    3877:	0f 11 8e f0 06 00 00 	movups %xmm1,0x6f0(%rsi)
    387e:	0f 10 87 00 2f 00 00 	movups 0x2f00(%rdi),%xmm0
    3885:	0f 10 8f 10 2f 00 00 	movups 0x2f10(%rdi),%xmm1
    388c:	0f 11 86 00 07 00 00 	movups %xmm0,0x700(%rsi)
    3893:	0f 11 8e 10 07 00 00 	movups %xmm1,0x710(%rsi)
    389a:	0f 10 87 20 2f 00 00 	movups 0x2f20(%rdi),%xmm0
    38a1:	0f 10 8f 30 2f 00 00 	movups 0x2f30(%rdi),%xmm1
    38a8:	0f 11 86 20 07 00 00 	movups %xmm0,0x720(%rsi)
    38af:	0f 11 8e 30 07 00 00 	movups %xmm1,0x730(%rsi)
    38b6:	0f 10 87 40 2f 00 00 	movups 0x2f40(%rdi),%xmm0
    38bd:	0f 10 8f 50 2f 00 00 	movups 0x2f50(%rdi),%xmm1
    38c4:	0f 11 86 40 07 00 00 	movups %xmm0,0x740(%rsi)
    38cb:	0f 11 8e 50 07 00 00 	movups %xmm1,0x750(%rsi)
    38d2:	0f 10 87 60 2f 00 00 	movups 0x2f60(%rdi),%xmm0
    38d9:	0f 10 8f 70 2f 00 00 	movups 0x2f70(%rdi),%xmm1
    38e0:	0f 11 86 60 07 00 00 	movups %xmm0,0x760(%rsi)
    38e7:	0f 11 8e 70 07 00 00 	movups %xmm1,0x770(%rsi)
    38ee:	0f 10 87 80 2f 00 00 	movups 0x2f80(%rdi),%xmm0
    38f5:	0f 10 8f 90 2f 00 00 	movups 0x2f90(%rdi),%xmm1
    38fc:	0f 11 86 80 07 00 00 	movups %xmm0,0x780(%rsi)
    3903:	0f 11 8e 90 07 00 00 	movups %xmm1,0x790(%rsi)
    390a:	0f 10 87 a0 2f 00 00 	movups 0x2fa0(%rdi),%xmm0
    3911:	0f 10 8f b0 2f 00 00 	movups 0x2fb0(%rdi),%xmm1
    3918:	0f 11 86 a0 07 00 00 	movups %xmm0,0x7a0(%rsi)
    391f:	0f 11 8e b0 07 00 00 	movups %xmm1,0x7b0(%rsi)
    3926:	0f 10 87 c0 2f 00 00 	movups 0x2fc0(%rdi),%xmm0
    392d:	0f 10 8f d0 2f 00 00 	movups 0x2fd0(%rdi),%xmm1
    3934:	0f 11 86 c0 07 00 00 	movups %xmm0,0x7c0(%rsi)
    393b:	0f 11 8e d0 07 00 00 	movups %xmm1,0x7d0(%rsi)
    3942:	0f 10 87 e0 2f 00 00 	movups 0x2fe0(%rdi),%xmm0
    3949:	0f 10 8f f0 2f 00 00 	movups 0x2ff0(%rdi),%xmm1
    3950:	0f 11 86 e0 07 00 00 	movups %xmm0,0x7e0(%rsi)
    3957:	0f 11 8e f0 07 00 00 	movups %xmm1,0x7f0(%rsi)
    395e:	31 c0                	xor    %eax,%eax
    3960:	5d                   	pop    %rbp
    3961:	c3                   	ret
    3962:	66 66 66 66 66 2e 0f 	data16 data16 data16 data16 cs nopw 0x0(%rax,%rax,1)
    3969:	1f 84 00 00 00 00 00 

0000000000003970 <m16_find_dirent>:
    3970:	55                   	push   %rbp
    3971:	48 89 e5             	mov    %rsp,%rbp
    3974:	48 8d 4f 08          	lea    0x8(%rdi),%rcx
    3978:	31 c0                	xor    %eax,%eax
    397a:	eb 11                	jmp    398d <m16_find_dirent+0x1d>
    397c:	0f 1f 40 00          	nopl   0x0(%rax)
    3980:	48 ff c0             	inc    %rax
    3983:	48 83 c1 28          	add    $0x28,%rcx
    3987:	48 83 f8 0c          	cmp    $0xc,%rax
    398b:	74 32                	je     39bf <m16_find_dirent+0x4f>
    398d:	48 8d 14 80          	lea    (%rax,%rax,4),%rdx
    3991:	83 3c d7 00          	cmpl   $0x0,(%rdi,%rdx,8)
    3995:	74 e9                	je     3980 <m16_find_dirent+0x10>
    3997:	31 d2                	xor    %edx,%edx
    3999:	0f 1f 80 00 00 00 00 	nopl   0x0(%rax)
    39a0:	44 0f b6 04 11       	movzbl (%rcx,%rdx,1),%r8d
    39a5:	44 3a 04 16          	cmp    (%rsi,%rdx,1),%r8b
    39a9:	75 d5                	jne    3980 <m16_find_dirent+0x10>
    39ab:	45 84 c0             	test   %r8b,%r8b
    39ae:	74 0d                	je     39bd <m16_find_dirent+0x4d>
    39b0:	4c 8d 42 01          	lea    0x1(%rdx),%r8
    39b4:	48 83 fa 1f          	cmp    $0x1f,%rdx
    39b8:	4c 89 c2             	mov    %r8,%rdx
    39bb:	75 e3                	jne    39a0 <m16_find_dirent+0x30>
    39bd:	5d                   	pop    %rbp
    39be:	c3                   	ret
    39bf:	b8 fb ff ff ff       	mov    $0xfffffffb,%eax
    39c4:	5d                   	pop    %rbp
    39c5:	c3                   	ret
    39c6:	66 2e 0f 1f 84 00 00 	cs nopw 0x0(%rax,%rax,1)
    39cd:	00 00 00 

00000000000039d0 <m16_find_free_inode>:
    39d0:	55                   	push   %rbp
    39d1:	48 89 e5             	mov    %rsp,%rbp
    39d4:	0f b6 0f             	movzbl (%rdi),%ecx
    39d7:	b8 01 00 00 00       	mov    $0x1,%eax
    39dc:	f6 c1 02             	test   $0x2,%cl
    39df:	0f 84 9c 00 00 00    	je     3a81 <m16_find_free_inode+0xb1>
    39e5:	b8 02 00 00 00       	mov    $0x2,%eax
    39ea:	f6 c1 04             	test   $0x4,%cl
    39ed:	0f 84 8e 00 00 00    	je     3a81 <m16_find_free_inode+0xb1>
    39f3:	b8 03 00 00 00       	mov    $0x3,%eax
    39f8:	f6 c1 08             	test   $0x8,%cl
    39fb:	0f 84 80 00 00 00    	je     3a81 <m16_find_free_inode+0xb1>
    3a01:	b8 04 00 00 00       	mov    $0x4,%eax
    3a06:	f6 c1 10             	test   $0x10,%cl
    3a09:	74 76                	je     3a81 <m16_find_free_inode+0xb1>
    3a0b:	b8 05 00 00 00       	mov    $0x5,%eax
    3a10:	f6 c1 20             	test   $0x20,%cl
    3a13:	74 6c                	je     3a81 <m16_find_free_inode+0xb1>
    3a15:	b8 06 00 00 00       	mov    $0x6,%eax
    3a1a:	f6 c1 40             	test   $0x40,%cl
    3a1d:	74 62                	je     3a81 <m16_find_free_inode+0xb1>
    3a1f:	b8 07 00 00 00       	mov    $0x7,%eax
    3a24:	84 c9                	test   %cl,%cl
    3a26:	79 59                	jns    3a81 <m16_find_free_inode+0xb1>
    3a28:	0f b6 4f 01          	movzbl 0x1(%rdi),%ecx
    3a2c:	b8 08 00 00 00       	mov    $0x8,%eax
    3a31:	f6 c1 01             	test   $0x1,%cl
    3a34:	74 4b                	je     3a81 <m16_find_free_inode+0xb1>
    3a36:	b8 09 00 00 00       	mov    $0x9,%eax
    3a3b:	f6 c1 02             	test   $0x2,%cl
    3a3e:	74 41                	je     3a81 <m16_find_free_inode+0xb1>
    3a40:	b8 0a 00 00 00       	mov    $0xa,%eax
    3a45:	f6 c1 04             	test   $0x4,%cl
    3a48:	74 37                	je     3a81 <m16_find_free_inode+0xb1>
    3a4a:	b8 0b 00 00 00       	mov    $0xb,%eax
    3a4f:	f6 c1 08             	test   $0x8,%cl
    3a52:	74 2d                	je     3a81 <m16_find_free_inode+0xb1>
    3a54:	b8 0c 00 00 00       	mov    $0xc,%eax
    3a59:	f6 c1 10             	test   $0x10,%cl
    3a5c:	74 23                	je     3a81 <m16_find_free_inode+0xb1>
    3a5e:	b8 0d 00 00 00       	mov    $0xd,%eax
    3a63:	f6 c1 20             	test   $0x20,%cl
    3a66:	74 19                	je     3a81 <m16_find_free_inode+0xb1>
    3a68:	b8 0e 00 00 00       	mov    $0xe,%eax
    3a6d:	f6 c1 40             	test   $0x40,%cl
    3a70:	74 0f                	je     3a81 <m16_find_free_inode+0xb1>
    3a72:	84 c9                	test   %cl,%cl
    3a74:	b9 0f 00 00 00       	mov    $0xf,%ecx
    3a79:	b8 fd ff ff ff       	mov    $0xfffffffd,%eax
    3a7e:	0f 49 c1             	cmovns %ecx,%eax
    3a81:	5d                   	pop    %rbp
    3a82:	c3                   	ret
    3a83:	66 66 66 66 2e 0f 1f 	data16 data16 data16 cs nopw 0x0(%rax,%rax,1)
    3a8a:	84 00 00 00 00 00 

0000000000003a90 <m16_find_free_dirent>:
    3a90:	55                   	push   %rbp
    3a91:	48 89 e5             	mov    %rsp,%rbp
    3a94:	83 3f 00             	cmpl   $0x0,(%rdi)
    3a97:	74 67                	je     3b00 <m16_find_free_dirent+0x70>
    3a99:	83 7f 28 00          	cmpl   $0x0,0x28(%rdi)
    3a9d:	74 65                	je     3b04 <m16_find_free_dirent+0x74>
    3a9f:	83 7f 50 00          	cmpl   $0x0,0x50(%rdi)
    3aa3:	74 66                	je     3b0b <m16_find_free_dirent+0x7b>
    3aa5:	83 7f 78 00          	cmpl   $0x0,0x78(%rdi)
    3aa9:	74 67                	je     3b12 <m16_find_free_dirent+0x82>
    3aab:	83 bf a0 00 00 00 00 	cmpl   $0x0,0xa0(%rdi)
    3ab2:	74 65                	je     3b19 <m16_find_free_dirent+0x89>
    3ab4:	83 bf c8 00 00 00 00 	cmpl   $0x0,0xc8(%rdi)
    3abb:	74 63                	je     3b20 <m16_find_free_dirent+0x90>
    3abd:	83 bf f0 00 00 00 00 	cmpl   $0x0,0xf0(%rdi)
    3ac4:	74 61                	je     3b27 <m16_find_free_dirent+0x97>
    3ac6:	83 bf 18 01 00 00 00 	cmpl   $0x0,0x118(%rdi)
    3acd:	74 5f                	je     3b2e <m16_find_free_dirent+0x9e>
    3acf:	83 bf 40 01 00 00 00 	cmpl   $0x0,0x140(%rdi)
    3ad6:	74 5d                	je     3b35 <m16_find_free_dirent+0xa5>
    3ad8:	83 bf 68 01 00 00 00 	cmpl   $0x0,0x168(%rdi)
    3adf:	74 5b                	je     3b3c <m16_find_free_dirent+0xac>
    3ae1:	83 bf 90 01 00 00 00 	cmpl   $0x0,0x190(%rdi)
    3ae8:	74 59                	je     3b43 <m16_find_free_dirent+0xb3>
    3aea:	83 bf b8 01 00 00 00 	cmpl   $0x0,0x1b8(%rdi)
    3af1:	b9 0b 00 00 00       	mov    $0xb,%ecx
    3af6:	b8 fd ff ff ff       	mov    $0xfffffffd,%eax
    3afb:	0f 44 c1             	cmove  %ecx,%eax
    3afe:	5d                   	pop    %rbp
    3aff:	c3                   	ret
    3b00:	31 c0                	xor    %eax,%eax
    3b02:	5d                   	pop    %rbp
    3b03:	c3                   	ret
    3b04:	b8 01 00 00 00       	mov    $0x1,%eax
    3b09:	5d                   	pop    %rbp
    3b0a:	c3                   	ret
    3b0b:	b8 02 00 00 00       	mov    $0x2,%eax
    3b10:	5d                   	pop    %rbp
    3b11:	c3                   	ret
    3b12:	b8 03 00 00 00       	mov    $0x3,%eax
    3b17:	5d                   	pop    %rbp
    3b18:	c3                   	ret
    3b19:	b8 04 00 00 00       	mov    $0x4,%eax
    3b1e:	5d                   	pop    %rbp
    3b1f:	c3                   	ret
    3b20:	b8 05 00 00 00       	mov    $0x5,%eax
    3b25:	5d                   	pop    %rbp
    3b26:	c3                   	ret
    3b27:	b8 06 00 00 00       	mov    $0x6,%eax
    3b2c:	5d                   	pop    %rbp
    3b2d:	c3                   	ret
    3b2e:	b8 07 00 00 00       	mov    $0x7,%eax
    3b33:	5d                   	pop    %rbp
    3b34:	c3                   	ret
    3b35:	b8 08 00 00 00       	mov    $0x8,%eax
    3b3a:	5d                   	pop    %rbp
    3b3b:	c3                   	ret
    3b3c:	b8 09 00 00 00       	mov    $0x9,%eax
    3b41:	5d                   	pop    %rbp
    3b42:	c3                   	ret
    3b43:	b8 0a 00 00 00       	mov    $0xa,%eax
    3b48:	5d                   	pop    %rbp
    3b49:	c3                   	ret
    3b4a:	66 0f 1f 44 00 00    	nopw   0x0(%rax,%rax,1)

0000000000003b50 <m16_store_inode_table>:
    3b50:	55                   	push   %rbp
    3b51:	48 89 e5             	mov    %rsp,%rbp
    3b54:	b8 fd ff ff ff       	mov    $0xfffffffd,%eax
    3b59:	48 85 ff             	test   %rdi,%rdi
    3b5c:	0f 84 bc 08 00 00    	je     441e <m16_store_inode_table+0x8ce>
    3b62:	48 85 f6             	test   %rsi,%rsi
    3b65:	0f 84 b3 08 00 00    	je     441e <m16_store_inode_table+0x8ce>
    3b6b:	8b 0f                	mov    (%rdi),%ecx
    3b6d:	8d 51 fb             	lea    -0x5(%rcx),%edx
    3b70:	83 fa f7             	cmp    $0xfffffff7,%edx
    3b73:	0f 82 a5 08 00 00    	jb     441e <m16_store_inode_table+0x8ce>
    3b79:	48 89 c8             	mov    %rcx,%rax
    3b7c:	48 c1 e0 09          	shl    $0x9,%rax
    3b80:	48 8d 04 88          	lea    (%rax,%rcx,4),%rax
    3b84:	c7 44 07 04 14 00 00 	movl   $0x14,0x4(%rdi,%rax,1)
    3b8b:	00 
    3b8c:	48 8d 14 38          	lea    (%rax,%rdi,1),%rdx
    3b90:	48 29 f2             	sub    %rsi,%rdx
    3b93:	48 83 c2 08          	add    $0x8,%rdx
    3b97:	48 83 fa 1f          	cmp    $0x1f,%rdx
    3b9b:	77 4f                	ja     3bec <m16_store_inode_table+0x9c>
    3b9d:	48 01 f8             	add    %rdi,%rax
    3ba0:	48 83 c0 0b          	add    $0xb,%rax
    3ba4:	31 d2                	xor    %edx,%edx
    3ba6:	66 2e 0f 1f 84 00 00 	cs nopw 0x0(%rax,%rax,1)
    3bad:	00 00 00 
    3bb0:	44 0f b6 04 16       	movzbl (%rsi,%rdx,1),%r8d
    3bb5:	44 88 44 10 fd       	mov    %r8b,-0x3(%rax,%rdx,1)
    3bba:	44 0f b6 44 16 01    	movzbl 0x1(%rsi,%rdx,1),%r8d
    3bc0:	44 88 44 10 fe       	mov    %r8b,-0x2(%rax,%rdx,1)
    3bc5:	44 0f b6 44 16 02    	movzbl 0x2(%rsi,%rdx,1),%r8d
    3bcb:	44 88 44 10 ff       	mov    %r8b,-0x1(%rax,%rdx,1)
    3bd0:	44 0f b6 44 16 03    	movzbl 0x3(%rsi,%rdx,1),%r8d
    3bd6:	44 88 04 10          	mov    %r8b,(%rax,%rdx,1)
    3bda:	48 83 c2 04          	add    $0x4,%rdx
    3bde:	48 81 fa 00 02 00 00 	cmp    $0x200,%rdx
    3be5:	75 c9                	jne    3bb0 <m16_store_inode_table+0x60>
    3be7:	e9 95 01 00 00       	jmp    3d81 <m16_store_inode_table+0x231>
    3bec:	48 01 f8             	add    %rdi,%rax
    3bef:	48 83 c0 08          	add    $0x8,%rax
    3bf3:	0f 10 06             	movups (%rsi),%xmm0
    3bf6:	0f 10 4e 10          	movups 0x10(%rsi),%xmm1
    3bfa:	0f 11 00             	movups %xmm0,(%rax)
    3bfd:	0f 11 48 10          	movups %xmm1,0x10(%rax)
    3c01:	0f 10 46 20          	movups 0x20(%rsi),%xmm0
    3c05:	0f 10 4e 30          	movups 0x30(%rsi),%xmm1
    3c09:	0f 11 40 20          	movups %xmm0,0x20(%rax)
    3c0d:	0f 11 48 30          	movups %xmm1,0x30(%rax)
    3c11:	0f 10 46 40          	movups 0x40(%rsi),%xmm0
    3c15:	0f 10 4e 50          	movups 0x50(%rsi),%xmm1
    3c19:	0f 11 40 40          	movups %xmm0,0x40(%rax)
    3c1d:	0f 11 48 50          	movups %xmm1,0x50(%rax)
    3c21:	0f 10 46 60          	movups 0x60(%rsi),%xmm0
    3c25:	0f 10 4e 70          	movups 0x70(%rsi),%xmm1
    3c29:	0f 11 40 60          	movups %xmm0,0x60(%rax)
    3c2d:	0f 11 48 70          	movups %xmm1,0x70(%rax)
    3c31:	0f 10 86 80 00 00 00 	movups 0x80(%rsi),%xmm0
    3c38:	0f 10 8e 90 00 00 00 	movups 0x90(%rsi),%xmm1
    3c3f:	0f 11 80 80 00 00 00 	movups %xmm0,0x80(%rax)
    3c46:	0f 11 88 90 00 00 00 	movups %xmm1,0x90(%rax)
    3c4d:	0f 10 86 a0 00 00 00 	movups 0xa0(%rsi),%xmm0
    3c54:	0f 10 8e b0 00 00 00 	movups 0xb0(%rsi),%xmm1
    3c5b:	0f 11 80 a0 00 00 00 	movups %xmm0,0xa0(%rax)
    3c62:	0f 11 88 b0 00 00 00 	movups %xmm1,0xb0(%rax)
    3c69:	0f 10 86 c0 00 00 00 	movups 0xc0(%rsi),%xmm0
    3c70:	0f 10 8e d0 00 00 00 	movups 0xd0(%rsi),%xmm1
    3c77:	0f 11 80 c0 00 00 00 	movups %xmm0,0xc0(%rax)
    3c7e:	0f 11 88 d0 00 00 00 	movups %xmm1,0xd0(%rax)
    3c85:	0f 10 86 e0 00 00 00 	movups 0xe0(%rsi),%xmm0
    3c8c:	0f 10 8e f0 00 00 00 	movups 0xf0(%rsi),%xmm1
    3c93:	0f 11 80 e0 00 00 00 	movups %xmm0,0xe0(%rax)
    3c9a:	0f 11 88 f0 00 00 00 	movups %xmm1,0xf0(%rax)
    3ca1:	0f 10 86 00 01 00 00 	movups 0x100(%rsi),%xmm0
    3ca8:	0f 10 8e 10 01 00 00 	movups 0x110(%rsi),%xmm1
    3caf:	0f 11 80 00 01 00 00 	movups %xmm0,0x100(%rax)
    3cb6:	0f 11 88 10 01 00 00 	movups %xmm1,0x110(%rax)
    3cbd:	0f 10 86 20 01 00 00 	movups 0x120(%rsi),%xmm0
    3cc4:	0f 10 8e 30 01 00 00 	movups 0x130(%rsi),%xmm1
    3ccb:	0f 11 80 20 01 00 00 	movups %xmm0,0x120(%rax)
    3cd2:	0f 11 88 30 01 00 00 	movups %xmm1,0x130(%rax)
    3cd9:	0f 10 86 40 01 00 00 	movups 0x140(%rsi),%xmm0
    3ce0:	0f 10 8e 50 01 00 00 	movups 0x150(%rsi),%xmm1
    3ce7:	0f 11 80 40 01 00 00 	movups %xmm0,0x140(%rax)
    3cee:	0f 11 88 50 01 00 00 	movups %xmm1,0x150(%rax)
    3cf5:	0f 10 86 60 01 00 00 	movups 0x160(%rsi),%xmm0
    3cfc:	0f 10 8e 70 01 00 00 	movups 0x170(%rsi),%xmm1
    3d03:	0f 11 80 60 01 00 00 	movups %xmm0,0x160(%rax)
    3d0a:	0f 11 88 70 01 00 00 	movups %xmm1,0x170(%rax)
    3d11:	0f 10 86 80 01 00 00 	movups 0x180(%rsi),%xmm0
    3d18:	0f 10 8e 90 01 00 00 	movups 0x190(%rsi),%xmm1
    3d1f:	0f 11 80 80 01 00 00 	movups %xmm0,0x180(%rax)
    3d26:	0f 11 88 90 01 00 00 	movups %xmm1,0x190(%rax)
    3d2d:	0f 10 86 a0 01 00 00 	movups 0x1a0(%rsi),%xmm0
    3d34:	0f 10 8e b0 01 00 00 	movups 0x1b0(%rsi),%xmm1
    3d3b:	0f 11 80 a0 01 00 00 	movups %xmm0,0x1a0(%rax)
    3d42:	0f 11 88 b0 01 00 00 	movups %xmm1,0x1b0(%rax)
    3d49:	0f 10 86 c0 01 00 00 	movups 0x1c0(%rsi),%xmm0
    3d50:	0f 10 8e d0 01 00 00 	movups 0x1d0(%rsi),%xmm1
    3d57:	0f 11 80 c0 01 00 00 	movups %xmm0,0x1c0(%rax)
    3d5e:	0f 11 88 d0 01 00 00 	movups %xmm1,0x1d0(%rax)
    3d65:	0f 10 86 e0 01 00 00 	movups 0x1e0(%rsi),%xmm0
    3d6c:	0f 10 8e f0 01 00 00 	movups 0x1f0(%rsi),%xmm1
    3d73:	0f 11 80 e0 01 00 00 	movups %xmm0,0x1e0(%rax)
    3d7a:	0f 11 88 f0 01 00 00 	movups %xmm1,0x1f0(%rax)
    3d81:	8d 41 01             	lea    0x1(%rcx),%eax
    3d84:	89 07                	mov    %eax,(%rdi)
    3d86:	48 89 c2             	mov    %rax,%rdx
    3d89:	48 c1 e2 09          	shl    $0x9,%rdx
    3d8d:	48 8d 04 82          	lea    (%rdx,%rax,4),%rax
    3d91:	c7 44 07 04 15 00 00 	movl   $0x15,0x4(%rdi,%rax,1)
    3d98:	00 
    3d99:	48 8d 14 38          	lea    (%rax,%rdi,1),%rdx
    3d9d:	48 29 f2             	sub    %rsi,%rdx
    3da0:	48 81 c2 08 fe ff ff 	add    $0xfffffffffffffe08,%rdx
    3da7:	48 83 fa 1f          	cmp    $0x1f,%rdx
    3dab:	77 5c                	ja     3e09 <m16_store_inode_table+0x2b9>
    3dad:	48 01 f8             	add    %rdi,%rax
    3db0:	48 83 c0 0b          	add    $0xb,%rax
    3db4:	31 d2                	xor    %edx,%edx
    3db6:	66 2e 0f 1f 84 00 00 	cs nopw 0x0(%rax,%rax,1)
    3dbd:	00 00 00 
    3dc0:	44 0f b6 84 16 00 02 	movzbl 0x200(%rsi,%rdx,1),%r8d
    3dc7:	00 00 
    3dc9:	44 88 44 10 fd       	mov    %r8b,-0x3(%rax,%rdx,1)
    3dce:	44 0f b6 84 16 01 02 	movzbl 0x201(%rsi,%rdx,1),%r8d
    3dd5:	00 00 
    3dd7:	44 88 44 10 fe       	mov    %r8b,-0x2(%rax,%rdx,1)
    3ddc:	44 0f b6 84 16 02 02 	movzbl 0x202(%rsi,%rdx,1),%r8d
    3de3:	00 00 
    3de5:	44 88 44 10 ff       	mov    %r8b,-0x1(%rax,%rdx,1)
    3dea:	44 0f b6 84 16 03 02 	movzbl 0x203(%rsi,%rdx,1),%r8d
    3df1:	00 00 
    3df3:	44 88 04 10          	mov    %r8b,(%rax,%rdx,1)
    3df7:	48 83 c2 04          	add    $0x4,%rdx
    3dfb:	48 81 fa 00 02 00 00 	cmp    $0x200,%rdx
    3e02:	75 bc                	jne    3dc0 <m16_store_inode_table+0x270>
    3e04:	e9 ae 01 00 00       	jmp    3fb7 <m16_store_inode_table+0x467>
    3e09:	48 01 f8             	add    %rdi,%rax
    3e0c:	48 83 c0 08          	add    $0x8,%rax
    3e10:	0f 10 86 00 02 00 00 	movups 0x200(%rsi),%xmm0
    3e17:	0f 10 8e 10 02 00 00 	movups 0x210(%rsi),%xmm1
    3e1e:	0f 11 00             	movups %xmm0,(%rax)
    3e21:	0f 11 48 10          	movups %xmm1,0x10(%rax)
    3e25:	0f 10 86 20 02 00 00 	movups 0x220(%rsi),%xmm0
    3e2c:	0f 10 8e 30 02 00 00 	movups 0x230(%rsi),%xmm1
    3e33:	0f 11 40 20          	movups %xmm0,0x20(%rax)
    3e37:	0f 11 48 30          	movups %xmm1,0x30(%rax)
    3e3b:	0f 10 86 40 02 00 00 	movups 0x240(%rsi),%xmm0
    3e42:	0f 10 8e 50 02 00 00 	movups 0x250(%rsi),%xmm1
    3e49:	0f 11 40 40          	movups %xmm0,0x40(%rax)
    3e4d:	0f 11 48 50          	movups %xmm1,0x50(%rax)
    3e51:	0f 10 86 60 02 00 00 	movups 0x260(%rsi),%xmm0
    3e58:	0f 10 8e 70 02 00 00 	movups 0x270(%rsi),%xmm1
    3e5f:	0f 11 40 60          	movups %xmm0,0x60(%rax)
    3e63:	0f 11 48 70          	movups %xmm1,0x70(%rax)
    3e67:	0f 10 86 80 02 00 00 	movups 0x280(%rsi),%xmm0
    3e6e:	0f 10 8e 90 02 00 00 	movups 0x290(%rsi),%xmm1
    3e75:	0f 11 80 80 00 00 00 	movups %xmm0,0x80(%rax)
    3e7c:	0f 11 88 90 00 00 00 	movups %xmm1,0x90(%rax)
    3e83:	0f 10 86 a0 02 00 00 	movups 0x2a0(%rsi),%xmm0
    3e8a:	0f 10 8e b0 02 00 00 	movups 0x2b0(%rsi),%xmm1
    3e91:	0f 11 80 a0 00 00 00 	movups %xmm0,0xa0(%rax)
    3e98:	0f 11 88 b0 00 00 00 	movups %xmm1,0xb0(%rax)
    3e9f:	0f 10 86 c0 02 00 00 	movups 0x2c0(%rsi),%xmm0
    3ea6:	0f 10 8e d0 02 00 00 	movups 0x2d0(%rsi),%xmm1
    3ead:	0f 11 80 c0 00 00 00 	movups %xmm0,0xc0(%rax)
    3eb4:	0f 11 88 d0 00 00 00 	movups %xmm1,0xd0(%rax)
    3ebb:	0f 10 86 e0 02 00 00 	movups 0x2e0(%rsi),%xmm0
    3ec2:	0f 10 8e f0 02 00 00 	movups 0x2f0(%rsi),%xmm1
    3ec9:	0f 11 80 e0 00 00 00 	movups %xmm0,0xe0(%rax)
    3ed0:	0f 11 88 f0 00 00 00 	movups %xmm1,0xf0(%rax)
    3ed7:	0f 10 86 00 03 00 00 	movups 0x300(%rsi),%xmm0
    3ede:	0f 10 8e 10 03 00 00 	movups 0x310(%rsi),%xmm1
    3ee5:	0f 11 80 00 01 00 00 	movups %xmm0,0x100(%rax)
    3eec:	0f 11 88 10 01 00 00 	movups %xmm1,0x110(%rax)
    3ef3:	0f 10 86 20 03 00 00 	movups 0x320(%rsi),%xmm0
    3efa:	0f 10 8e 30 03 00 00 	movups 0x330(%rsi),%xmm1
    3f01:	0f 11 80 20 01 00 00 	movups %xmm0,0x120(%rax)
    3f08:	0f 11 88 30 01 00 00 	movups %xmm1,0x130(%rax)
    3f0f:	0f 10 86 40 03 00 00 	movups 0x340(%rsi),%xmm0
    3f16:	0f 10 8e 50 03 00 00 	movups 0x350(%rsi),%xmm1
    3f1d:	0f 11 80 40 01 00 00 	movups %xmm0,0x140(%rax)
    3f24:	0f 11 88 50 01 00 00 	movups %xmm1,0x150(%rax)
    3f2b:	0f 10 86 60 03 00 00 	movups 0x360(%rsi),%xmm0
    3f32:	0f 10 8e 70 03 00 00 	movups 0x370(%rsi),%xmm1
    3f39:	0f 11 80 60 01 00 00 	movups %xmm0,0x160(%rax)
    3f40:	0f 11 88 70 01 00 00 	movups %xmm1,0x170(%rax)
    3f47:	0f 10 86 80 03 00 00 	movups 0x380(%rsi),%xmm0
    3f4e:	0f 10 8e 90 03 00 00 	movups 0x390(%rsi),%xmm1
    3f55:	0f 11 80 80 01 00 00 	movups %xmm0,0x180(%rax)
    3f5c:	0f 11 88 90 01 00 00 	movups %xmm1,0x190(%rax)
    3f63:	0f 10 86 a0 03 00 00 	movups 0x3a0(%rsi),%xmm0
    3f6a:	0f 10 8e b0 03 00 00 	movups 0x3b0(%rsi),%xmm1
    3f71:	0f 11 80 a0 01 00 00 	movups %xmm0,0x1a0(%rax)
    3f78:	0f 11 88 b0 01 00 00 	movups %xmm1,0x1b0(%rax)
    3f7f:	0f 10 86 c0 03 00 00 	movups 0x3c0(%rsi),%xmm0
    3f86:	0f 10 8e d0 03 00 00 	movups 0x3d0(%rsi),%xmm1
    3f8d:	0f 11 80 c0 01 00 00 	movups %xmm0,0x1c0(%rax)
    3f94:	0f 11 88 d0 01 00 00 	movups %xmm1,0x1d0(%rax)
    3f9b:	0f 10 86 e0 03 00 00 	movups 0x3e0(%rsi),%xmm0
    3fa2:	0f 10 8e f0 03 00 00 	movups 0x3f0(%rsi),%xmm1
    3fa9:	0f 11 80 e0 01 00 00 	movups %xmm0,0x1e0(%rax)
    3fb0:	0f 11 88 f0 01 00 00 	movups %xmm1,0x1f0(%rax)
    3fb7:	8d 41 02             	lea    0x2(%rcx),%eax
    3fba:	89 07                	mov    %eax,(%rdi)
    3fbc:	48 89 c2             	mov    %rax,%rdx
    3fbf:	48 c1 e2 09          	shl    $0x9,%rdx
    3fc3:	48 8d 04 82          	lea    (%rdx,%rax,4),%rax
    3fc7:	c7 44 07 04 16 00 00 	movl   $0x16,0x4(%rdi,%rax,1)
    3fce:	00 
    3fcf:	48 8d 14 38          	lea    (%rax,%rdi,1),%rdx
    3fd3:	48 29 f2             	sub    %rsi,%rdx
    3fd6:	48 81 c2 08 fc ff ff 	add    $0xfffffffffffffc08,%rdx
    3fdd:	48 83 fa 1f          	cmp    $0x1f,%rdx
    3fe1:	77 56                	ja     4039 <m16_store_inode_table+0x4e9>
    3fe3:	48 01 f8             	add    %rdi,%rax
    3fe6:	48 83 c0 0b          	add    $0xb,%rax
    3fea:	31 d2                	xor    %edx,%edx
    3fec:	0f 1f 40 00          	nopl   0x0(%rax)
    3ff0:	44 0f b6 84 16 00 04 	movzbl 0x400(%rsi,%rdx,1),%r8d
    3ff7:	00 00 
    3ff9:	44 88 44 10 fd       	mov    %r8b,-0x3(%rax,%rdx,1)
    3ffe:	44 0f b6 84 16 01 04 	movzbl 0x401(%rsi,%rdx,1),%r8d
    4005:	00 00 
    4007:	44 88 44 10 fe       	mov    %r8b,-0x2(%rax,%rdx,1)
    400c:	44 0f b6 84 16 02 04 	movzbl 0x402(%rsi,%rdx,1),%r8d
    4013:	00 00 
    4015:	44 88 44 10 ff       	mov    %r8b,-0x1(%rax,%rdx,1)
    401a:	44 0f b6 84 16 03 04 	movzbl 0x403(%rsi,%rdx,1),%r8d
    4021:	00 00 
    4023:	44 88 04 10          	mov    %r8b,(%rax,%rdx,1)
    4027:	48 83 c2 04          	add    $0x4,%rdx
    402b:	48 81 fa 00 02 00 00 	cmp    $0x200,%rdx
    4032:	75 bc                	jne    3ff0 <m16_store_inode_table+0x4a0>
    4034:	e9 ae 01 00 00       	jmp    41e7 <m16_store_inode_table+0x697>
    4039:	48 01 f8             	add    %rdi,%rax
    403c:	48 83 c0 08          	add    $0x8,%rax
    4040:	0f 10 86 00 04 00 00 	movups 0x400(%rsi),%xmm0
    4047:	0f 10 8e 10 04 00 00 	movups 0x410(%rsi),%xmm1
    404e:	0f 11 00             	movups %xmm0,(%rax)
    4051:	0f 11 48 10          	movups %xmm1,0x10(%rax)
    4055:	0f 10 86 20 04 00 00 	movups 0x420(%rsi),%xmm0
    405c:	0f 10 8e 30 04 00 00 	movups 0x430(%rsi),%xmm1
    4063:	0f 11 40 20          	movups %xmm0,0x20(%rax)
    4067:	0f 11 48 30          	movups %xmm1,0x30(%rax)
    406b:	0f 10 86 40 04 00 00 	movups 0x440(%rsi),%xmm0
    4072:	0f 10 8e 50 04 00 00 	movups 0x450(%rsi),%xmm1
    4079:	0f 11 40 40          	movups %xmm0,0x40(%rax)
    407d:	0f 11 48 50          	movups %xmm1,0x50(%rax)
    4081:	0f 10 86 60 04 00 00 	movups 0x460(%rsi),%xmm0
    4088:	0f 10 8e 70 04 00 00 	movups 0x470(%rsi),%xmm1
    408f:	0f 11 40 60          	movups %xmm0,0x60(%rax)
    4093:	0f 11 48 70          	movups %xmm1,0x70(%rax)
    4097:	0f 10 86 80 04 00 00 	movups 0x480(%rsi),%xmm0
    409e:	0f 10 8e 90 04 00 00 	movups 0x490(%rsi),%xmm1
    40a5:	0f 11 80 80 00 00 00 	movups %xmm0,0x80(%rax)
    40ac:	0f 11 88 90 00 00 00 	movups %xmm1,0x90(%rax)
    40b3:	0f 10 86 a0 04 00 00 	movups 0x4a0(%rsi),%xmm0
    40ba:	0f 10 8e b0 04 00 00 	movups 0x4b0(%rsi),%xmm1
    40c1:	0f 11 80 a0 00 00 00 	movups %xmm0,0xa0(%rax)
    40c8:	0f 11 88 b0 00 00 00 	movups %xmm1,0xb0(%rax)
    40cf:	0f 10 86 c0 04 00 00 	movups 0x4c0(%rsi),%xmm0
    40d6:	0f 10 8e d0 04 00 00 	movups 0x4d0(%rsi),%xmm1
    40dd:	0f 11 80 c0 00 00 00 	movups %xmm0,0xc0(%rax)
    40e4:	0f 11 88 d0 00 00 00 	movups %xmm1,0xd0(%rax)
    40eb:	0f 10 86 e0 04 00 00 	movups 0x4e0(%rsi),%xmm0
    40f2:	0f 10 8e f0 04 00 00 	movups 0x4f0(%rsi),%xmm1
    40f9:	0f 11 80 e0 00 00 00 	movups %xmm0,0xe0(%rax)
    4100:	0f 11 88 f0 00 00 00 	movups %xmm1,0xf0(%rax)
    4107:	0f 10 86 00 05 00 00 	movups 0x500(%rsi),%xmm0
    410e:	0f 10 8e 10 05 00 00 	movups 0x510(%rsi),%xmm1
    4115:	0f 11 80 00 01 00 00 	movups %xmm0,0x100(%rax)
    411c:	0f 11 88 10 01 00 00 	movups %xmm1,0x110(%rax)
    4123:	0f 10 86 20 05 00 00 	movups 0x520(%rsi),%xmm0
    412a:	0f 10 8e 30 05 00 00 	movups 0x530(%rsi),%xmm1
    4131:	0f 11 80 20 01 00 00 	movups %xmm0,0x120(%rax)
    4138:	0f 11 88 30 01 00 00 	movups %xmm1,0x130(%rax)
    413f:	0f 10 86 40 05 00 00 	movups 0x540(%rsi),%xmm0
    4146:	0f 10 8e 50 05 00 00 	movups 0x550(%rsi),%xmm1
    414d:	0f 11 80 40 01 00 00 	movups %xmm0,0x140(%rax)
    4154:	0f 11 88 50 01 00 00 	movups %xmm1,0x150(%rax)
    415b:	0f 10 86 60 05 00 00 	movups 0x560(%rsi),%xmm0
    4162:	0f 10 8e 70 05 00 00 	movups 0x570(%rsi),%xmm1
    4169:	0f 11 80 60 01 00 00 	movups %xmm0,0x160(%rax)
    4170:	0f 11 88 70 01 00 00 	movups %xmm1,0x170(%rax)
    4177:	0f 10 86 80 05 00 00 	movups 0x580(%rsi),%xmm0
    417e:	0f 10 8e 90 05 00 00 	movups 0x590(%rsi),%xmm1
    4185:	0f 11 80 80 01 00 00 	movups %xmm0,0x180(%rax)
    418c:	0f 11 88 90 01 00 00 	movups %xmm1,0x190(%rax)
    4193:	0f 10 86 a0 05 00 00 	movups 0x5a0(%rsi),%xmm0
    419a:	0f 10 8e b0 05 00 00 	movups 0x5b0(%rsi),%xmm1
    41a1:	0f 11 80 a0 01 00 00 	movups %xmm0,0x1a0(%rax)
    41a8:	0f 11 88 b0 01 00 00 	movups %xmm1,0x1b0(%rax)
    41af:	0f 10 86 c0 05 00 00 	movups 0x5c0(%rsi),%xmm0
    41b6:	0f 10 8e d0 05 00 00 	movups 0x5d0(%rsi),%xmm1
    41bd:	0f 11 80 c0 01 00 00 	movups %xmm0,0x1c0(%rax)
    41c4:	0f 11 88 d0 01 00 00 	movups %xmm1,0x1d0(%rax)
    41cb:	0f 10 86 e0 05 00 00 	movups 0x5e0(%rsi),%xmm0
    41d2:	0f 10 8e f0 05 00 00 	movups 0x5f0(%rsi),%xmm1
    41d9:	0f 11 80 e0 01 00 00 	movups %xmm0,0x1e0(%rax)
    41e0:	0f 11 88 f0 01 00 00 	movups %xmm1,0x1f0(%rax)
    41e7:	8d 41 03             	lea    0x3(%rcx),%eax
    41ea:	89 07                	mov    %eax,(%rdi)
    41ec:	48 89 c2             	mov    %rax,%rdx
    41ef:	48 c1 e2 09          	shl    $0x9,%rdx
    41f3:	48 8d 04 82          	lea    (%rdx,%rax,4),%rax
    41f7:	c7 44 07 04 17 00 00 	movl   $0x17,0x4(%rdi,%rax,1)
    41fe:	00 
    41ff:	48 8d 14 38          	lea    (%rax,%rdi,1),%rdx
    4203:	48 29 f2             	sub    %rsi,%rdx
    4206:	48 81 c2 08 fa ff ff 	add    $0xfffffffffffffa08,%rdx
    420d:	48 83 fa 1f          	cmp    $0x1f,%rdx
    4211:	77 56                	ja     4269 <m16_store_inode_table+0x719>
    4213:	48 01 f8             	add    %rdi,%rax
    4216:	48 83 c0 0b          	add    $0xb,%rax
    421a:	31 d2                	xor    %edx,%edx
    421c:	0f 1f 40 00          	nopl   0x0(%rax)
    4220:	44 0f b6 84 16 00 06 	movzbl 0x600(%rsi,%rdx,1),%r8d
    4227:	00 00 
    4229:	44 88 44 10 fd       	mov    %r8b,-0x3(%rax,%rdx,1)
    422e:	44 0f b6 84 16 01 06 	movzbl 0x601(%rsi,%rdx,1),%r8d
    4235:	00 00 
    4237:	44 88 44 10 fe       	mov    %r8b,-0x2(%rax,%rdx,1)
    423c:	44 0f b6 84 16 02 06 	movzbl 0x602(%rsi,%rdx,1),%r8d
    4243:	00 00 
    4245:	44 88 44 10 ff       	mov    %r8b,-0x1(%rax,%rdx,1)
    424a:	44 0f b6 84 16 03 06 	movzbl 0x603(%rsi,%rdx,1),%r8d
    4251:	00 00 
    4253:	44 88 04 10          	mov    %r8b,(%rax,%rdx,1)
    4257:	48 83 c2 04          	add    $0x4,%rdx
    425b:	48 81 fa 00 02 00 00 	cmp    $0x200,%rdx
    4262:	75 bc                	jne    4220 <m16_store_inode_table+0x6d0>
    4264:	e9 ae 01 00 00       	jmp    4417 <m16_store_inode_table+0x8c7>
    4269:	48 01 f8             	add    %rdi,%rax
    426c:	48 83 c0 08          	add    $0x8,%rax
    4270:	0f 10 86 00 06 00 00 	movups 0x600(%rsi),%xmm0
    4277:	0f 10 8e 10 06 00 00 	movups 0x610(%rsi),%xmm1
    427e:	0f 11 00             	movups %xmm0,(%rax)
    4281:	0f 11 48 10          	movups %xmm1,0x10(%rax)
    4285:	0f 10 86 20 06 00 00 	movups 0x620(%rsi),%xmm0
    428c:	0f 10 8e 30 06 00 00 	movups 0x630(%rsi),%xmm1
    4293:	0f 11 40 20          	movups %xmm0,0x20(%rax)
    4297:	0f 11 48 30          	movups %xmm1,0x30(%rax)
    429b:	0f 10 86 40 06 00 00 	movups 0x640(%rsi),%xmm0
    42a2:	0f 10 8e 50 06 00 00 	movups 0x650(%rsi),%xmm1
    42a9:	0f 11 40 40          	movups %xmm0,0x40(%rax)
    42ad:	0f 11 48 50          	movups %xmm1,0x50(%rax)
    42b1:	0f 10 86 60 06 00 00 	movups 0x660(%rsi),%xmm0
    42b8:	0f 10 8e 70 06 00 00 	movups 0x670(%rsi),%xmm1
    42bf:	0f 11 40 60          	movups %xmm0,0x60(%rax)
    42c3:	0f 11 48 70          	movups %xmm1,0x70(%rax)
    42c7:	0f 10 86 80 06 00 00 	movups 0x680(%rsi),%xmm0
    42ce:	0f 10 8e 90 06 00 00 	movups 0x690(%rsi),%xmm1
    42d5:	0f 11 80 80 00 00 00 	movups %xmm0,0x80(%rax)
    42dc:	0f 11 88 90 00 00 00 	movups %xmm1,0x90(%rax)
    42e3:	0f 10 86 a0 06 00 00 	movups 0x6a0(%rsi),%xmm0
    42ea:	0f 10 8e b0 06 00 00 	movups 0x6b0(%rsi),%xmm1
    42f1:	0f 11 80 a0 00 00 00 	movups %xmm0,0xa0(%rax)
    42f8:	0f 11 88 b0 00 00 00 	movups %xmm1,0xb0(%rax)
    42ff:	0f 10 86 c0 06 00 00 	movups 0x6c0(%rsi),%xmm0
    4306:	0f 10 8e d0 06 00 00 	movups 0x6d0(%rsi),%xmm1
    430d:	0f 11 80 c0 00 00 00 	movups %xmm0,0xc0(%rax)
    4314:	0f 11 88 d0 00 00 00 	movups %xmm1,0xd0(%rax)
    431b:	0f 10 86 e0 06 00 00 	movups 0x6e0(%rsi),%xmm0
    4322:	0f 10 8e f0 06 00 00 	movups 0x6f0(%rsi),%xmm1
    4329:	0f 11 80 e0 00 00 00 	movups %xmm0,0xe0(%rax)
    4330:	0f 11 88 f0 00 00 00 	movups %xmm1,0xf0(%rax)
    4337:	0f 10 86 00 07 00 00 	movups 0x700(%rsi),%xmm0
    433e:	0f 10 8e 10 07 00 00 	movups 0x710(%rsi),%xmm1
    4345:	0f 11 80 00 01 00 00 	movups %xmm0,0x100(%rax)
    434c:	0f 11 88 10 01 00 00 	movups %xmm1,0x110(%rax)
    4353:	0f 10 86 20 07 00 00 	movups 0x720(%rsi),%xmm0
    435a:	0f 10 8e 30 07 00 00 	movups 0x730(%rsi),%xmm1
    4361:	0f 11 80 20 01 00 00 	movups %xmm0,0x120(%rax)
    4368:	0f 11 88 30 01 00 00 	movups %xmm1,0x130(%rax)
    436f:	0f 10 86 40 07 00 00 	movups 0x740(%rsi),%xmm0
    4376:	0f 10 8e 50 07 00 00 	movups 0x750(%rsi),%xmm1
    437d:	0f 11 80 40 01 00 00 	movups %xmm0,0x140(%rax)
    4384:	0f 11 88 50 01 00 00 	movups %xmm1,0x150(%rax)
    438b:	0f 10 86 60 07 00 00 	movups 0x760(%rsi),%xmm0
    4392:	0f 10 8e 70 07 00 00 	movups 0x770(%rsi),%xmm1
    4399:	0f 11 80 60 01 00 00 	movups %xmm0,0x160(%rax)
    43a0:	0f 11 88 70 01 00 00 	movups %xmm1,0x170(%rax)
    43a7:	0f 10 86 80 07 00 00 	movups 0x780(%rsi),%xmm0
    43ae:	0f 10 8e 90 07 00 00 	movups 0x790(%rsi),%xmm1
    43b5:	0f 11 80 80 01 00 00 	movups %xmm0,0x180(%rax)
    43bc:	0f 11 88 90 01 00 00 	movups %xmm1,0x190(%rax)
    43c3:	0f 10 86 a0 07 00 00 	movups 0x7a0(%rsi),%xmm0
    43ca:	0f 10 8e b0 07 00 00 	movups 0x7b0(%rsi),%xmm1
    43d1:	0f 11 80 a0 01 00 00 	movups %xmm0,0x1a0(%rax)
    43d8:	0f 11 88 b0 01 00 00 	movups %xmm1,0x1b0(%rax)
    43df:	0f 10 86 c0 07 00 00 	movups 0x7c0(%rsi),%xmm0
    43e6:	0f 10 8e d0 07 00 00 	movups 0x7d0(%rsi),%xmm1
    43ed:	0f 11 80 c0 01 00 00 	movups %xmm0,0x1c0(%rax)
    43f4:	0f 11 88 d0 01 00 00 	movups %xmm1,0x1d0(%rax)
    43fb:	0f 10 86 e0 07 00 00 	movups 0x7e0(%rsi),%xmm0
    4402:	0f 10 8e f0 07 00 00 	movups 0x7f0(%rsi),%xmm1
    4409:	0f 11 80 e0 01 00 00 	movups %xmm0,0x1e0(%rax)
    4410:	0f 11 88 f0 01 00 00 	movups %xmm1,0x1f0(%rax)
    4417:	83 c1 04             	add    $0x4,%ecx
    441a:	89 0f                	mov    %ecx,(%rdi)
    441c:	31 c0                	xor    %eax,%eax
    441e:	5d                   	pop    %rbp
    441f:	c3                   	ret

0000000000004420 <m16_journal_commit>:
    4420:	b8 ff ff ff ff       	mov    $0xffffffff,%eax
    4425:	48 85 f6             	test   %rsi,%rsi
    4428:	0f 84 1f 06 00 00    	je     4a4d <m16_journal_commit+0x62d>
    442e:	83 3e 08             	cmpl   $0x8,(%rsi)
    4431:	0f 87 16 06 00 00    	ja     4a4d <m16_journal_commit+0x62d>
    4437:	83 bf 00 00 01 00 02 	cmpl   $0x2,0x10000(%rdi)
    443e:	0f 82 09 06 00 00    	jb     4a4d <m16_journal_commit+0x62d>
    4444:	44 8b 87 10 00 01 00 	mov    0x10010(%rdi),%r8d
    444b:	45 85 c0             	test   %r8d,%r8d
    444e:	0f 84 f4 05 00 00    	je     4a48 <m16_journal_commit+0x628>
    4454:	7e 0a                	jle    4460 <m16_journal_commit+0x40>
    4456:	41 ff c8             	dec    %r8d
    4459:	44 89 87 10 00 01 00 	mov    %r8d,0x10010(%rdi)
    4460:	55                   	push   %rbp
    4461:	48 89 e5             	mov    %rsp,%rbp
    4464:	41 57                	push   %r15
    4466:	41 56                	push   %r14
    4468:	41 55                	push   %r13
    446a:	41 54                	push   %r12
    446c:	53                   	push   %rbx
    446d:	48 81 ec 38 02 00 00 	sub    $0x238,%rsp
    4474:	0f 57 c0             	xorps  %xmm0,%xmm0
    4477:	0f 11 87 00 02 00 00 	movups %xmm0,0x200(%rdi)
    447e:	0f 11 87 10 02 00 00 	movups %xmm0,0x210(%rdi)
    4485:	0f 11 87 20 02 00 00 	movups %xmm0,0x220(%rdi)
    448c:	0f 11 87 30 02 00 00 	movups %xmm0,0x230(%rdi)
    4493:	0f 11 87 40 02 00 00 	movups %xmm0,0x240(%rdi)
    449a:	0f 11 87 50 02 00 00 	movups %xmm0,0x250(%rdi)
    44a1:	0f 11 87 60 02 00 00 	movups %xmm0,0x260(%rdi)
    44a8:	0f 11 87 70 02 00 00 	movups %xmm0,0x270(%rdi)
    44af:	0f 11 87 80 02 00 00 	movups %xmm0,0x280(%rdi)
    44b6:	0f 11 87 90 02 00 00 	movups %xmm0,0x290(%rdi)
    44bd:	0f 11 87 a0 02 00 00 	movups %xmm0,0x2a0(%rdi)
    44c4:	0f 11 87 b0 02 00 00 	movups %xmm0,0x2b0(%rdi)
    44cb:	0f 11 87 c0 02 00 00 	movups %xmm0,0x2c0(%rdi)
    44d2:	0f 11 87 d0 02 00 00 	movups %xmm0,0x2d0(%rdi)
    44d9:	0f 11 87 e0 02 00 00 	movups %xmm0,0x2e0(%rdi)
    44e0:	0f 11 87 f0 02 00 00 	movups %xmm0,0x2f0(%rdi)
    44e7:	0f 11 87 00 03 00 00 	movups %xmm0,0x300(%rdi)
    44ee:	0f 11 87 10 03 00 00 	movups %xmm0,0x310(%rdi)
    44f5:	0f 11 87 20 03 00 00 	movups %xmm0,0x320(%rdi)
    44fc:	0f 11 87 30 03 00 00 	movups %xmm0,0x330(%rdi)
    4503:	0f 11 87 40 03 00 00 	movups %xmm0,0x340(%rdi)
    450a:	0f 11 87 50 03 00 00 	movups %xmm0,0x350(%rdi)
    4511:	0f 11 87 60 03 00 00 	movups %xmm0,0x360(%rdi)
    4518:	0f 11 87 70 03 00 00 	movups %xmm0,0x370(%rdi)
    451f:	0f 11 87 80 03 00 00 	movups %xmm0,0x380(%rdi)
    4526:	0f 11 87 90 03 00 00 	movups %xmm0,0x390(%rdi)
    452d:	0f 11 87 a0 03 00 00 	movups %xmm0,0x3a0(%rdi)
    4534:	0f 11 87 b0 03 00 00 	movups %xmm0,0x3b0(%rdi)
    453b:	0f 11 87 c0 03 00 00 	movups %xmm0,0x3c0(%rdi)
    4542:	0f 11 87 d0 03 00 00 	movups %xmm0,0x3d0(%rdi)
    4549:	0f 11 87 e0 03 00 00 	movups %xmm0,0x3e0(%rdi)
    4550:	0f 11 87 f0 03 00 00 	movups %xmm0,0x3f0(%rdi)
    4557:	48 ff 87 08 00 01 00 	incq   0x10008(%rdi)
    455e:	83 3e 00             	cmpl   $0x0,(%rsi)
    4561:	0f 84 e7 04 00 00    	je     4a4e <m16_journal_commit+0x62e>
    4567:	89 55 d4             	mov    %edx,-0x2c(%rbp)
    456a:	89 4d d0             	mov    %ecx,-0x30(%rbp)
    456d:	48 8d 8f 00 06 00 00 	lea    0x600(%rdi),%rcx
    4574:	48 89 4d b0          	mov    %rcx,-0x50(%rbp)
    4578:	48 8d 8f 00 08 00 00 	lea    0x800(%rdi),%rcx
    457f:	48 89 4d b8          	mov    %rcx,-0x48(%rbp)
    4583:	48 8d 4e 08          	lea    0x8(%rsi),%rcx
    4587:	48 89 4d c0          	mov    %rcx,-0x40(%rbp)
    458b:	48 8d 8e 08 02 00 00 	lea    0x208(%rsi),%rcx
    4592:	48 89 4d c8          	mov    %rcx,-0x38(%rbp)
    4596:	48 8d 5e 0b          	lea    0xb(%rsi),%rbx
    459a:	4c 8d b7 03 06 00 00 	lea    0x603(%rdi),%r14
    45a1:	45 31 ff             	xor    %r15d,%r15d
    45a4:	0f 28 0d 00 00 00 00 	movaps 0x0(%rip),%xmm1        # 45ab <m16_journal_commit+0x18b>
			45a7: R_X86_64_PC32	.LCPI12_0-0x4
    45ab:	e9 1a 02 00 00       	jmp    47ca <m16_journal_commit+0x3aa>
    45b0:	49 c1 e4 09          	shl    $0x9,%r12
    45b4:	49 01 fc             	add    %rdi,%r12
    45b7:	41 0f 10 55 00       	movups 0x0(%r13),%xmm2
    45bc:	41 0f 10 5d 10       	movups 0x10(%r13),%xmm3
    45c1:	41 0f 11 14 24       	movups %xmm2,(%r12)
    45c6:	41 0f 11 5c 24 10    	movups %xmm3,0x10(%r12)
    45cc:	41 0f 10 55 20       	movups 0x20(%r13),%xmm2
    45d1:	41 0f 10 5d 30       	movups 0x30(%r13),%xmm3
    45d6:	41 0f 11 54 24 20    	movups %xmm2,0x20(%r12)
    45dc:	41 0f 11 5c 24 30    	movups %xmm3,0x30(%r12)
    45e2:	41 0f 10 55 40       	movups 0x40(%r13),%xmm2
    45e7:	41 0f 10 5d 50       	movups 0x50(%r13),%xmm3
    45ec:	41 0f 11 54 24 40    	movups %xmm2,0x40(%r12)
    45f2:	41 0f 11 5c 24 50    	movups %xmm3,0x50(%r12)
    45f8:	41 0f 10 55 60       	movups 0x60(%r13),%xmm2
    45fd:	41 0f 10 5d 70       	movups 0x70(%r13),%xmm3
    4602:	41 0f 11 54 24 60    	movups %xmm2,0x60(%r12)
    4608:	41 0f 11 5c 24 70    	movups %xmm3,0x70(%r12)
    460e:	41 0f 10 95 80 00 00 	movups 0x80(%r13),%xmm2
    4615:	00 
    4616:	41 0f 10 9d 90 00 00 	movups 0x90(%r13),%xmm3
    461d:	00 
    461e:	41 0f 11 94 24 80 00 	movups %xmm2,0x80(%r12)
    4625:	00 00 
    4627:	41 0f 11 9c 24 90 00 	movups %xmm3,0x90(%r12)
    462e:	00 00 
    4630:	41 0f 10 95 a0 00 00 	movups 0xa0(%r13),%xmm2
    4637:	00 
    4638:	41 0f 10 9d b0 00 00 	movups 0xb0(%r13),%xmm3
    463f:	00 
    4640:	41 0f 11 94 24 a0 00 	movups %xmm2,0xa0(%r12)
    4647:	00 00 
    4649:	41 0f 11 9c 24 b0 00 	movups %xmm3,0xb0(%r12)
    4650:	00 00 
    4652:	41 0f 10 95 c0 00 00 	movups 0xc0(%r13),%xmm2
    4659:	00 
    465a:	41 0f 10 9d d0 00 00 	movups 0xd0(%r13),%xmm3
    4661:	00 
    4662:	41 0f 11 94 24 c0 00 	movups %xmm2,0xc0(%r12)
    4669:	00 00 
    466b:	41 0f 11 9c 24 d0 00 	movups %xmm3,0xd0(%r12)
    4672:	00 00 
    4674:	41 0f 10 95 e0 00 00 	movups 0xe0(%r13),%xmm2
    467b:	00 
    467c:	41 0f 10 9d f0 00 00 	movups 0xf0(%r13),%xmm3
    4683:	00 
    4684:	41 0f 11 94 24 e0 00 	movups %xmm2,0xe0(%r12)
    468b:	00 00 
    468d:	41 0f 11 9c 24 f0 00 	movups %xmm3,0xf0(%r12)
    4694:	00 00 
    4696:	41 0f 10 95 00 01 00 	movups 0x100(%r13),%xmm2
    469d:	00 
    469e:	41 0f 10 9d 10 01 00 	movups 0x110(%r13),%xmm3
    46a5:	00 
    46a6:	41 0f 11 94 24 00 01 	movups %xmm2,0x100(%r12)
    46ad:	00 00 
    46af:	41 0f 11 9c 24 10 01 	movups %xmm3,0x110(%r12)
    46b6:	00 00 
    46b8:	41 0f 10 95 20 01 00 	movups 0x120(%r13),%xmm2
    46bf:	00 
    46c0:	41 0f 10 9d 30 01 00 	movups 0x130(%r13),%xmm3
    46c7:	00 
    46c8:	41 0f 11 94 24 20 01 	movups %xmm2,0x120(%r12)
    46cf:	00 00 
    46d1:	41 0f 11 9c 24 30 01 	movups %xmm3,0x130(%r12)
    46d8:	00 00 
    46da:	41 0f 10 95 40 01 00 	movups 0x140(%r13),%xmm2
    46e1:	00 
    46e2:	41 0f 10 9d 50 01 00 	movups 0x150(%r13),%xmm3
    46e9:	00 
    46ea:	41 0f 11 94 24 40 01 	movups %xmm2,0x140(%r12)
    46f1:	00 00 
    46f3:	41 0f 11 9c 24 50 01 	movups %xmm3,0x150(%r12)
    46fa:	00 00 
    46fc:	41 0f 10 95 60 01 00 	movups 0x160(%r13),%xmm2
    4703:	00 
    4704:	41 0f 10 9d 70 01 00 	movups 0x170(%r13),%xmm3
    470b:	00 
    470c:	41 0f 11 94 24 60 01 	movups %xmm2,0x160(%r12)
    4713:	00 00 
    4715:	41 0f 11 9c 24 70 01 	movups %xmm3,0x170(%r12)
    471c:	00 00 
    471e:	41 0f 10 95 80 01 00 	movups 0x180(%r13),%xmm2
    4725:	00 
    4726:	41 0f 10 9d 90 01 00 	movups 0x190(%r13),%xmm3
    472d:	00 
    472e:	41 0f 11 94 24 80 01 	movups %xmm2,0x180(%r12)
    4735:	00 00 
    4737:	41 0f 11 9c 24 90 01 	movups %xmm3,0x190(%r12)
    473e:	00 00 
    4740:	41 0f 10 95 a0 01 00 	movups 0x1a0(%r13),%xmm2
    4747:	00 
    4748:	41 0f 10 9d b0 01 00 	movups 0x1b0(%r13),%xmm3
    474f:	00 
    4750:	41 0f 11 94 24 a0 01 	movups %xmm2,0x1a0(%r12)
    4757:	00 00 
    4759:	41 0f 11 9c 24 b0 01 	movups %xmm3,0x1b0(%r12)
    4760:	00 00 
    4762:	41 0f 10 95 c0 01 00 	movups 0x1c0(%r13),%xmm2
    4769:	00 
    476a:	41 0f 10 9d d0 01 00 	movups 0x1d0(%r13),%xmm3
    4771:	00 
    4772:	41 0f 11 94 24 c0 01 	movups %xmm2,0x1c0(%r12)
    4779:	00 00 
    477b:	41 0f 11 9c 24 d0 01 	movups %xmm3,0x1d0(%r12)
    4782:	00 00 
    4784:	41 0f 10 95 e0 01 00 	movups 0x1e0(%r13),%xmm2
    478b:	00 
    478c:	41 0f 10 9d f0 01 00 	movups 0x1f0(%r13),%xmm3
    4793:	00 
    4794:	41 0f 11 94 24 e0 01 	movups %xmm2,0x1e0(%r12)
    479b:	00 00 
    479d:	41 0f 11 9c 24 f0 01 	movups %xmm3,0x1f0(%r12)
    47a4:	00 00 
    47a6:	48 ff 87 08 00 01 00 	incq   0x10008(%rdi)
    47ad:	49 ff c7             	inc    %r15
    47b0:	44 8b 06             	mov    (%rsi),%r8d
    47b3:	48 81 c3 04 02 00 00 	add    $0x204,%rbx
    47ba:	49 81 c6 00 04 00 00 	add    $0x400,%r14
    47c1:	4d 39 c7             	cmp    %r8,%r15
    47c4:	0f 83 89 02 00 00    	jae    4a53 <m16_journal_commit+0x633>
    47ca:	4d 89 f8             	mov    %r15,%r8
    47cd:	49 c1 e0 0a          	shl    $0xa,%r8
    47d1:	48 8b 4d b0          	mov    -0x50(%rbp),%rcx
    47d5:	4e 8d 0c 01          	lea    (%rcx,%r8,1),%r9
    47d9:	4c 03 45 b8          	add    -0x48(%rbp),%r8
    47dd:	4c 89 f9             	mov    %r15,%rcx
    47e0:	48 c1 e1 09          	shl    $0x9,%rcx
    47e4:	4a 8d 0c b9          	lea    (%rcx,%r15,4),%rcx
    47e8:	48 8b 55 c0          	mov    -0x40(%rbp),%rdx
    47ec:	48 01 ca             	add    %rcx,%rdx
    47ef:	48 89 55 a8          	mov    %rdx,-0x58(%rbp)
    47f3:	48 8b 55 c8          	mov    -0x38(%rbp),%rdx
    47f7:	4c 8d 1c 0a          	lea    (%rdx,%rcx,1),%r11
    47fb:	4f 8d 24 3f          	lea    (%r15,%r15,1),%r12
    47ff:	f3 0f 10 5c 0e 04    	movss  0x4(%rsi,%rcx,1),%xmm3
    4805:	0f 28 d1             	movaps %xmm1,%xmm2
    4808:	0f 16 d3             	movlhps %xmm3,%xmm2
    480b:	4c 8d 2c 0e          	lea    (%rsi,%rcx,1),%r13
    480f:	49 83 c5 08          	add    $0x8,%r13
    4813:	b9 c5 9d 1c 81       	mov    $0x811c9dc5,%ecx
    4818:	45 31 d2             	xor    %r10d,%r10d
    481b:	0f 1f 44 00 00       	nopl   0x0(%rax,%rax,1)
    4820:	42 0f b6 54 13 fd    	movzbl -0x3(%rbx,%r10,1),%edx
    4826:	31 ca                	xor    %ecx,%edx
    4828:	69 ca 93 01 00 01    	imul   $0x1000193,%edx,%ecx
    482e:	42 0f b6 54 13 fe    	movzbl -0x2(%rbx,%r10,1),%edx
    4834:	31 ca                	xor    %ecx,%edx
    4836:	69 ca 93 01 00 01    	imul   $0x1000193,%edx,%ecx
    483c:	42 0f b6 54 13 ff    	movzbl -0x1(%rbx,%r10,1),%edx
    4842:	31 ca                	xor    %ecx,%edx
    4844:	69 ca 93 01 00 01    	imul   $0x1000193,%edx,%ecx
    484a:	42 0f b6 14 13       	movzbl (%rbx,%r10,1),%edx
    484f:	31 ca                	xor    %ecx,%edx
    4851:	69 ca 93 01 00 01    	imul   $0x1000193,%edx,%ecx
    4857:	49 83 c2 04          	add    $0x4,%r10
    485b:	49 81 fa 00 02 00 00 	cmp    $0x200,%r10
    4862:	75 bc                	jne    4820 <m16_journal_commit+0x400>
    4864:	49 83 ff 3e          	cmp    $0x3e,%r15
    4868:	0f 87 23 08 00 00    	ja     5091 <m16_journal_commit+0xc71>
    486e:	4d 8d 54 24 02       	lea    0x2(%r12),%r10
    4873:	8b 97 00 00 01 00    	mov    0x10000(%rdi),%edx
    4879:	49 39 d2             	cmp    %rdx,%r10
    487c:	0f 83 0f 08 00 00    	jae    5091 <m16_journal_commit+0xc71>
    4882:	8b 97 10 00 01 00    	mov    0x10010(%rdi),%edx
    4888:	85 d2                	test   %edx,%edx
    488a:	0f 84 fc 07 00 00    	je     508c <m16_journal_commit+0xc6c>
    4890:	7e 08                	jle    489a <m16_journal_commit+0x47a>
    4892:	ff ca                	dec    %edx
    4894:	89 97 10 00 01 00    	mov    %edx,0x10010(%rdi)
    489a:	66 0f 6e d9          	movd   %ecx,%xmm3
    489e:	0f c6 da e4          	shufps $0xe4,%xmm2,%xmm3
    48a2:	0f c6 d3 24          	shufps $0x24,%xmm3,%xmm2
    48a6:	49 c1 e2 09          	shl    $0x9,%r10
    48aa:	42 0f 11 14 17       	movups %xmm2,(%rdi,%r10,1)
    48af:	42 0f 11 44 17 10    	movups %xmm0,0x10(%rdi,%r10,1)
    48b5:	42 0f 11 44 17 20    	movups %xmm0,0x20(%rdi,%r10,1)
    48bb:	42 0f 11 44 17 30    	movups %xmm0,0x30(%rdi,%r10,1)
    48c1:	42 0f 11 44 17 40    	movups %xmm0,0x40(%rdi,%r10,1)
    48c7:	42 0f 11 44 17 50    	movups %xmm0,0x50(%rdi,%r10,1)
    48cd:	42 0f 11 44 17 60    	movups %xmm0,0x60(%rdi,%r10,1)
    48d3:	42 0f 11 44 17 70    	movups %xmm0,0x70(%rdi,%r10,1)
    48d9:	42 0f 11 84 17 80 00 	movups %xmm0,0x80(%rdi,%r10,1)
    48e0:	00 00 
    48e2:	42 0f 11 84 17 90 00 	movups %xmm0,0x90(%rdi,%r10,1)
    48e9:	00 00 
    48eb:	42 0f 11 84 17 a0 00 	movups %xmm0,0xa0(%rdi,%r10,1)
    48f2:	00 00 
    48f4:	42 0f 11 84 17 b0 00 	movups %xmm0,0xb0(%rdi,%r10,1)
    48fb:	00 00 
    48fd:	42 0f 11 84 17 c0 00 	movups %xmm0,0xc0(%rdi,%r10,1)
    4904:	00 00 
    4906:	42 0f 11 84 17 d0 00 	movups %xmm0,0xd0(%rdi,%r10,1)
    490d:	00 00 
    490f:	42 0f 11 84 17 e0 00 	movups %xmm0,0xe0(%rdi,%r10,1)
    4916:	00 00 
    4918:	42 0f 11 84 17 f0 00 	movups %xmm0,0xf0(%rdi,%r10,1)
    491f:	00 00 
    4921:	42 0f 11 84 17 00 01 	movups %xmm0,0x100(%rdi,%r10,1)
    4928:	00 00 
    492a:	42 0f 11 84 17 10 01 	movups %xmm0,0x110(%rdi,%r10,1)
    4931:	00 00 
    4933:	42 0f 11 84 17 20 01 	movups %xmm0,0x120(%rdi,%r10,1)
    493a:	00 00 
    493c:	42 0f 11 84 17 30 01 	movups %xmm0,0x130(%rdi,%r10,1)
    4943:	00 00 
    4945:	42 0f 11 84 17 40 01 	movups %xmm0,0x140(%rdi,%r10,1)
    494c:	00 00 
    494e:	42 0f 11 84 17 50 01 	movups %xmm0,0x150(%rdi,%r10,1)
    4955:	00 00 
    4957:	42 0f 11 84 17 60 01 	movups %xmm0,0x160(%rdi,%r10,1)
    495e:	00 00 
    4960:	42 0f 11 84 17 70 01 	movups %xmm0,0x170(%rdi,%r10,1)
    4967:	00 00 
    4969:	42 0f 11 84 17 80 01 	movups %xmm0,0x180(%rdi,%r10,1)
    4970:	00 00 
    4972:	42 0f 11 84 17 90 01 	movups %xmm0,0x190(%rdi,%r10,1)
    4979:	00 00 
    497b:	42 0f 11 84 17 a0 01 	movups %xmm0,0x1a0(%rdi,%r10,1)
    4982:	00 00 
    4984:	42 0f 11 84 17 b0 01 	movups %xmm0,0x1b0(%rdi,%r10,1)
    498b:	00 00 
    498d:	42 0f 11 84 17 c0 01 	movups %xmm0,0x1c0(%rdi,%r10,1)
    4994:	00 00 
    4996:	42 0f 11 84 17 d0 01 	movups %xmm0,0x1d0(%rdi,%r10,1)
    499d:	00 00 
    499f:	42 0f 11 84 17 e0 01 	movups %xmm0,0x1e0(%rdi,%r10,1)
    49a6:	00 00 
    49a8:	42 0f 11 84 17 f0 01 	movups %xmm0,0x1f0(%rdi,%r10,1)
    49af:	00 00 
    49b1:	48 ff 87 08 00 01 00 	incq   0x10008(%rdi)
    49b8:	49 83 ff 3e          	cmp    $0x3e,%r15
    49bc:	0f 87 cf 06 00 00    	ja     5091 <m16_journal_commit+0xc71>
    49c2:	49 83 c4 03          	add    $0x3,%r12
    49c6:	8b 8f 00 00 01 00    	mov    0x10000(%rdi),%ecx
    49cc:	49 39 cc             	cmp    %rcx,%r12
    49cf:	0f 83 bc 06 00 00    	jae    5091 <m16_journal_commit+0xc71>
    49d5:	8b 8f 10 00 01 00    	mov    0x10010(%rdi),%ecx
    49db:	85 c9                	test   %ecx,%ecx
    49dd:	0f 84 a9 06 00 00    	je     508c <m16_journal_commit+0xc6c>
    49e3:	7e 08                	jle    49ed <m16_journal_commit+0x5cd>
    49e5:	ff c9                	dec    %ecx
    49e7:	89 8f 10 00 01 00    	mov    %ecx,0x10010(%rdi)
    49ed:	4d 39 d9             	cmp    %r11,%r9
    49f0:	0f 83 ba fb ff ff    	jae    45b0 <m16_journal_commit+0x190>
    49f6:	4c 39 45 a8          	cmp    %r8,-0x58(%rbp)
    49fa:	0f 83 b0 fb ff ff    	jae    45b0 <m16_journal_commit+0x190>
    4a00:	31 c9                	xor    %ecx,%ecx
    4a02:	66 66 66 66 66 2e 0f 	data16 data16 data16 data16 cs nopw 0x0(%rax,%rax,1)
    4a09:	1f 84 00 00 00 00 00 
    4a10:	0f b6 54 0b fd       	movzbl -0x3(%rbx,%rcx,1),%edx
    4a15:	41 88 54 0e fd       	mov    %dl,-0x3(%r14,%rcx,1)
    4a1a:	0f b6 54 0b fe       	movzbl -0x2(%rbx,%rcx,1),%edx
    4a1f:	41 88 54 0e fe       	mov    %dl,-0x2(%r14,%rcx,1)
    4a24:	0f b6 54 0b ff       	movzbl -0x1(%rbx,%rcx,1),%edx
    4a29:	41 88 54 0e ff       	mov    %dl,-0x1(%r14,%rcx,1)
    4a2e:	0f b6 14 0b          	movzbl (%rbx,%rcx,1),%edx
    4a32:	41 88 14 0e          	mov    %dl,(%r14,%rcx,1)
    4a36:	48 83 c1 04          	add    $0x4,%rcx
    4a3a:	48 81 f9 00 02 00 00 	cmp    $0x200,%rcx
    4a41:	75 cd                	jne    4a10 <m16_journal_commit+0x5f0>
    4a43:	e9 5e fd ff ff       	jmp    47a6 <m16_journal_commit+0x386>
    4a48:	b8 fe ff ff ff       	mov    $0xfffffffe,%eax
    4a4d:	c3                   	ret
    4a4e:	45 31 c0             	xor    %r8d,%r8d
    4a51:	eb 06                	jmp    4a59 <m16_journal_commit+0x639>
    4a53:	8b 4d d0             	mov    -0x30(%rbp),%ecx
    4a56:	8b 55 d4             	mov    -0x2c(%rbp),%edx
    4a59:	0f 29 85 a0 fd ff ff 	movaps %xmm0,-0x260(%rbp)
    4a60:	0f 29 85 b0 fd ff ff 	movaps %xmm0,-0x250(%rbp)
    4a67:	0f 29 85 c0 fd ff ff 	movaps %xmm0,-0x240(%rbp)
    4a6e:	0f 29 85 d0 fd ff ff 	movaps %xmm0,-0x230(%rbp)
    4a75:	0f 29 85 e0 fd ff ff 	movaps %xmm0,-0x220(%rbp)
    4a7c:	0f 29 85 f0 fd ff ff 	movaps %xmm0,-0x210(%rbp)
    4a83:	0f 29 85 00 fe ff ff 	movaps %xmm0,-0x200(%rbp)
    4a8a:	0f 29 85 10 fe ff ff 	movaps %xmm0,-0x1f0(%rbp)
    4a91:	0f 29 85 20 fe ff ff 	movaps %xmm0,-0x1e0(%rbp)
    4a98:	0f 29 85 30 fe ff ff 	movaps %xmm0,-0x1d0(%rbp)
    4a9f:	0f 29 85 40 fe ff ff 	movaps %xmm0,-0x1c0(%rbp)
    4aa6:	0f 29 85 50 fe ff ff 	movaps %xmm0,-0x1b0(%rbp)
    4aad:	0f 29 85 60 fe ff ff 	movaps %xmm0,-0x1a0(%rbp)
    4ab4:	0f 29 85 70 fe ff ff 	movaps %xmm0,-0x190(%rbp)
    4abb:	0f 29 85 80 fe ff ff 	movaps %xmm0,-0x180(%rbp)
    4ac2:	0f 29 85 90 fe ff ff 	movaps %xmm0,-0x170(%rbp)
    4ac9:	0f 29 85 a0 fe ff ff 	movaps %xmm0,-0x160(%rbp)
    4ad0:	0f 29 85 b0 fe ff ff 	movaps %xmm0,-0x150(%rbp)
    4ad7:	0f 29 85 c0 fe ff ff 	movaps %xmm0,-0x140(%rbp)
    4ade:	0f 29 85 d0 fe ff ff 	movaps %xmm0,-0x130(%rbp)
    4ae5:	0f 29 85 e0 fe ff ff 	movaps %xmm0,-0x120(%rbp)
    4aec:	0f 29 85 f0 fe ff ff 	movaps %xmm0,-0x110(%rbp)
    4af3:	0f 29 85 00 ff ff ff 	movaps %xmm0,-0x100(%rbp)
    4afa:	0f 29 85 10 ff ff ff 	movaps %xmm0,-0xf0(%rbp)
    4b01:	0f 29 85 20 ff ff ff 	movaps %xmm0,-0xe0(%rbp)
    4b08:	0f 29 85 30 ff ff ff 	movaps %xmm0,-0xd0(%rbp)
    4b0f:	0f 29 85 40 ff ff ff 	movaps %xmm0,-0xc0(%rbp)
    4b16:	0f 29 85 50 ff ff ff 	movaps %xmm0,-0xb0(%rbp)
    4b1d:	0f 29 85 60 ff ff ff 	movaps %xmm0,-0xa0(%rbp)
    4b24:	0f 29 85 70 ff ff ff 	movaps %xmm0,-0x90(%rbp)
    4b2b:	0f 29 45 80          	movaps %xmm0,-0x80(%rbp)
    4b2f:	0f 29 45 90          	movaps %xmm0,-0x70(%rbp)
    4b33:	48 b8 31 4c 4e 52 4a 	movabs $0x4d43534a524e4c31,%rax
    4b3a:	53 43 4d 
    4b3d:	48 89 85 a0 fd ff ff 	mov    %rax,-0x260(%rbp)
    4b44:	48 b8 01 00 00 00 02 	movabs $0x200000001,%rax
    4b4b:	00 00 00 
    4b4e:	48 89 85 a8 fd ff ff 	mov    %rax,-0x258(%rbp)
    4b55:	89 95 b0 fd ff ff    	mov    %edx,-0x250(%rbp)
    4b5b:	44 89 85 b4 fd ff ff 	mov    %r8d,-0x24c(%rbp)
    4b62:	c7 85 b8 fd ff ff 00 	movl   $0x0,-0x248(%rbp)
    4b69:	00 00 00 
    4b6c:	41 b8 c5 9d 1c 81    	mov    $0x811c9dc5,%r8d
    4b72:	b8 03 00 00 00       	mov    $0x3,%eax
    4b77:	66 0f 1f 84 00 00 00 	nopw   0x0(%rax,%rax,1)
    4b7e:	00 00 
    4b80:	0f b6 94 05 9d fd ff 	movzbl -0x263(%rbp,%rax,1),%edx
    4b87:	ff 
    4b88:	44 31 c2             	xor    %r8d,%edx
    4b8b:	44 69 c2 93 01 00 01 	imul   $0x1000193,%edx,%r8d
    4b92:	0f b6 94 05 9e fd ff 	movzbl -0x262(%rbp,%rax,1),%edx
    4b99:	ff 
    4b9a:	44 31 c2             	xor    %r8d,%edx
    4b9d:	44 69 c2 93 01 00 01 	imul   $0x1000193,%edx,%r8d
    4ba4:	0f b6 94 05 9f fd ff 	movzbl -0x261(%rbp,%rax,1),%edx
    4bab:	ff 
    4bac:	44 31 c2             	xor    %r8d,%edx
    4baf:	44 69 c2 93 01 00 01 	imul   $0x1000193,%edx,%r8d
    4bb6:	0f b6 94 05 a0 fd ff 	movzbl -0x260(%rbp,%rax,1),%edx
    4bbd:	ff 
    4bbe:	44 31 c2             	xor    %r8d,%edx
    4bc1:	44 69 c2 93 01 00 01 	imul   $0x1000193,%edx,%r8d
    4bc8:	48 83 c0 04          	add    $0x4,%rax
    4bcc:	48 3d 03 02 00 00    	cmp    $0x203,%rax
    4bd2:	75 ac                	jne    4b80 <m16_journal_commit+0x760>
    4bd4:	44 89 85 b8 fd ff ff 	mov    %r8d,-0x248(%rbp)
    4bdb:	83 bf 00 00 01 00 02 	cmpl   $0x2,0x10000(%rdi)
    4be2:	73 0a                	jae    4bee <m16_journal_commit+0x7ce>
    4be4:	b8 ff ff ff ff       	mov    $0xffffffff,%eax
    4be9:	e9 a3 04 00 00       	jmp    5091 <m16_journal_commit+0xc71>
    4bee:	8b 87 10 00 01 00    	mov    0x10010(%rdi),%eax
    4bf4:	85 c0                	test   %eax,%eax
    4bf6:	0f 84 90 04 00 00    	je     508c <m16_journal_commit+0xc6c>
    4bfc:	7e 08                	jle    4c06 <m16_journal_commit+0x7e6>
    4bfe:	ff c8                	dec    %eax
    4c00:	89 87 10 00 01 00    	mov    %eax,0x10010(%rdi)
    4c06:	0f 28 85 a0 fd ff ff 	movaps -0x260(%rbp),%xmm0
    4c0d:	0f 28 8d b0 fd ff ff 	movaps -0x250(%rbp),%xmm1
    4c14:	0f 11 87 00 02 00 00 	movups %xmm0,0x200(%rdi)
    4c1b:	0f 11 8f 10 02 00 00 	movups %xmm1,0x210(%rdi)
    4c22:	0f 28 85 c0 fd ff ff 	movaps -0x240(%rbp),%xmm0
    4c29:	0f 28 8d d0 fd ff ff 	movaps -0x230(%rbp),%xmm1
    4c30:	0f 11 87 20 02 00 00 	movups %xmm0,0x220(%rdi)
    4c37:	0f 11 8f 30 02 00 00 	movups %xmm1,0x230(%rdi)
    4c3e:	0f 28 85 e0 fd ff ff 	movaps -0x220(%rbp),%xmm0
    4c45:	0f 28 8d f0 fd ff ff 	movaps -0x210(%rbp),%xmm1
    4c4c:	0f 11 87 40 02 00 00 	movups %xmm0,0x240(%rdi)
    4c53:	0f 11 8f 50 02 00 00 	movups %xmm1,0x250(%rdi)
    4c5a:	0f 28 85 00 fe ff ff 	movaps -0x200(%rbp),%xmm0
    4c61:	0f 28 8d 10 fe ff ff 	movaps -0x1f0(%rbp),%xmm1
    4c68:	0f 11 87 60 02 00 00 	movups %xmm0,0x260(%rdi)
    4c6f:	0f 11 8f 70 02 00 00 	movups %xmm1,0x270(%rdi)
    4c76:	0f 28 85 20 fe ff ff 	movaps -0x1e0(%rbp),%xmm0
    4c7d:	0f 28 8d 30 fe ff ff 	movaps -0x1d0(%rbp),%xmm1
    4c84:	0f 11 87 80 02 00 00 	movups %xmm0,0x280(%rdi)
    4c8b:	0f 11 8f 90 02 00 00 	movups %xmm1,0x290(%rdi)
    4c92:	0f 28 85 40 fe ff ff 	movaps -0x1c0(%rbp),%xmm0
    4c99:	0f 28 8d 50 fe ff ff 	movaps -0x1b0(%rbp),%xmm1
    4ca0:	0f 11 87 a0 02 00 00 	movups %xmm0,0x2a0(%rdi)
    4ca7:	0f 11 8f b0 02 00 00 	movups %xmm1,0x2b0(%rdi)
    4cae:	0f 28 85 60 fe ff ff 	movaps -0x1a0(%rbp),%xmm0
    4cb5:	0f 28 8d 70 fe ff ff 	movaps -0x190(%rbp),%xmm1
    4cbc:	0f 11 87 c0 02 00 00 	movups %xmm0,0x2c0(%rdi)
    4cc3:	0f 11 8f d0 02 00 00 	movups %xmm1,0x2d0(%rdi)
    4cca:	0f 28 85 80 fe ff ff 	movaps -0x180(%rbp),%xmm0
    4cd1:	0f 28 8d 90 fe ff ff 	movaps -0x170(%rbp),%xmm1
    4cd8:	0f 11 87 e0 02 00 00 	movups %xmm0,0x2e0(%rdi)
    4cdf:	0f 11 8f f0 02 00 00 	movups %xmm1,0x2f0(%rdi)
    4ce6:	0f 28 85 a0 fe ff ff 	movaps -0x160(%rbp),%xmm0
    4ced:	0f 28 8d b0 fe ff ff 	movaps -0x150(%rbp),%xmm1
    4cf4:	0f 11 87 00 03 00 00 	movups %xmm0,0x300(%rdi)
    4cfb:	0f 11 8f 10 03 00 00 	movups %xmm1,0x310(%rdi)
    4d02:	0f 28 85 c0 fe ff ff 	movaps -0x140(%rbp),%xmm0
    4d09:	0f 28 8d d0 fe ff ff 	movaps -0x130(%rbp),%xmm1
    4d10:	0f 11 87 20 03 00 00 	movups %xmm0,0x320(%rdi)
    4d17:	0f 11 8f 30 03 00 00 	movups %xmm1,0x330(%rdi)
    4d1e:	0f 28 85 e0 fe ff ff 	movaps -0x120(%rbp),%xmm0
    4d25:	0f 28 8d f0 fe ff ff 	movaps -0x110(%rbp),%xmm1
    4d2c:	0f 11 87 40 03 00 00 	movups %xmm0,0x340(%rdi)
    4d33:	0f 11 8f 50 03 00 00 	movups %xmm1,0x350(%rdi)
    4d3a:	0f 28 85 00 ff ff ff 	movaps -0x100(%rbp),%xmm0
    4d41:	0f 28 8d 10 ff ff ff 	movaps -0xf0(%rbp),%xmm1
    4d48:	0f 11 87 60 03 00 00 	movups %xmm0,0x360(%rdi)
    4d4f:	0f 11 8f 70 03 00 00 	movups %xmm1,0x370(%rdi)
    4d56:	0f 28 85 20 ff ff ff 	movaps -0xe0(%rbp),%xmm0
    4d5d:	0f 28 8d 30 ff ff ff 	movaps -0xd0(%rbp),%xmm1
    4d64:	0f 11 87 80 03 00 00 	movups %xmm0,0x380(%rdi)
    4d6b:	0f 11 8f 90 03 00 00 	movups %xmm1,0x390(%rdi)
    4d72:	0f 28 85 40 ff ff ff 	movaps -0xc0(%rbp),%xmm0
    4d79:	0f 28 8d 50 ff ff ff 	movaps -0xb0(%rbp),%xmm1
    4d80:	0f 11 87 a0 03 00 00 	movups %xmm0,0x3a0(%rdi)
    4d87:	0f 11 8f b0 03 00 00 	movups %xmm1,0x3b0(%rdi)
    4d8e:	0f 28 85 60 ff ff ff 	movaps -0xa0(%rbp),%xmm0
    4d95:	0f 28 8d 70 ff ff ff 	movaps -0x90(%rbp),%xmm1
    4d9c:	0f 11 87 c0 03 00 00 	movups %xmm0,0x3c0(%rdi)
    4da3:	0f 11 8f d0 03 00 00 	movups %xmm1,0x3d0(%rdi)
    4daa:	0f 28 45 80          	movaps -0x80(%rbp),%xmm0
    4dae:	0f 28 4d 90          	movaps -0x70(%rbp),%xmm1
    4db2:	0f 11 87 e0 03 00 00 	movups %xmm0,0x3e0(%rdi)
    4db9:	0f 11 8f f0 03 00 00 	movups %xmm1,0x3f0(%rdi)
    4dc0:	48 ff 87 08 00 01 00 	incq   0x10008(%rdi)
    4dc7:	31 c0                	xor    %eax,%eax
    4dc9:	85 c9                	test   %ecx,%ecx
    4dcb:	0f 85 c0 02 00 00    	jne    5091 <m16_journal_commit+0xc71>
    4dd1:	83 3e 00             	cmpl   $0x0,(%rsi)
    4dd4:	0f 84 c9 02 00 00    	je     50a3 <m16_journal_commit+0xc83>
    4dda:	48 89 f8             	mov    %rdi,%rax
    4ddd:	48 29 f0             	sub    %rsi,%rax
    4de0:	48 83 c0 f8          	add    $0xfffffffffffffff8,%rax
    4de4:	48 8d 4e 0b          	lea    0xb(%rsi),%rcx
    4de8:	48 8d 57 03          	lea    0x3(%rdi),%rdx
    4dec:	45 31 c0             	xor    %r8d,%r8d
    4def:	e9 f2 01 00 00       	jmp    4fe6 <m16_journal_commit+0xbc6>
    4df4:	49 01 f2             	add    %rsi,%r10
    4df7:	49 83 c2 08          	add    $0x8,%r10
    4dfb:	49 01 f9             	add    %rdi,%r9
    4dfe:	41 0f 10 02          	movups (%r10),%xmm0
    4e02:	41 0f 10 4a 10       	movups 0x10(%r10),%xmm1
    4e07:	41 0f 11 01          	movups %xmm0,(%r9)
    4e0b:	41 0f 11 49 10       	movups %xmm1,0x10(%r9)
    4e10:	41 0f 10 42 20       	movups 0x20(%r10),%xmm0
    4e15:	41 0f 10 4a 30       	movups 0x30(%r10),%xmm1
    4e1a:	41 0f 11 41 20       	movups %xmm0,0x20(%r9)
    4e1f:	41 0f 11 49 30       	movups %xmm1,0x30(%r9)
    4e24:	41 0f 10 42 40       	movups 0x40(%r10),%xmm0
    4e29:	41 0f 10 4a 50       	movups 0x50(%r10),%xmm1
    4e2e:	41 0f 11 41 40       	movups %xmm0,0x40(%r9)
    4e33:	41 0f 11 49 50       	movups %xmm1,0x50(%r9)
    4e38:	41 0f 10 42 60       	movups 0x60(%r10),%xmm0
    4e3d:	41 0f 10 4a 70       	movups 0x70(%r10),%xmm1
    4e42:	41 0f 11 41 60       	movups %xmm0,0x60(%r9)
    4e47:	41 0f 11 49 70       	movups %xmm1,0x70(%r9)
    4e4c:	41 0f 10 82 80 00 00 	movups 0x80(%r10),%xmm0
    4e53:	00 
    4e54:	41 0f 10 8a 90 00 00 	movups 0x90(%r10),%xmm1
    4e5b:	00 
    4e5c:	41 0f 11 81 80 00 00 	movups %xmm0,0x80(%r9)
    4e63:	00 
    4e64:	41 0f 11 89 90 00 00 	movups %xmm1,0x90(%r9)
    4e6b:	00 
    4e6c:	41 0f 10 82 a0 00 00 	movups 0xa0(%r10),%xmm0
    4e73:	00 
    4e74:	41 0f 10 8a b0 00 00 	movups 0xb0(%r10),%xmm1
    4e7b:	00 
    4e7c:	41 0f 11 81 a0 00 00 	movups %xmm0,0xa0(%r9)
    4e83:	00 
    4e84:	41 0f 11 89 b0 00 00 	movups %xmm1,0xb0(%r9)
    4e8b:	00 
    4e8c:	41 0f 10 82 c0 00 00 	movups 0xc0(%r10),%xmm0
    4e93:	00 
    4e94:	41 0f 10 8a d0 00 00 	movups 0xd0(%r10),%xmm1
    4e9b:	00 
    4e9c:	41 0f 11 81 c0 00 00 	movups %xmm0,0xc0(%r9)
    4ea3:	00 
    4ea4:	41 0f 11 89 d0 00 00 	movups %xmm1,0xd0(%r9)
    4eab:	00 
    4eac:	41 0f 10 82 e0 00 00 	movups 0xe0(%r10),%xmm0
    4eb3:	00 
    4eb4:	41 0f 10 8a f0 00 00 	movups 0xf0(%r10),%xmm1
    4ebb:	00 
    4ebc:	41 0f 11 81 e0 00 00 	movups %xmm0,0xe0(%r9)
    4ec3:	00 
    4ec4:	41 0f 11 89 f0 00 00 	movups %xmm1,0xf0(%r9)
    4ecb:	00 
    4ecc:	41 0f 10 82 00 01 00 	movups 0x100(%r10),%xmm0
    4ed3:	00 
    4ed4:	41 0f 10 8a 10 01 00 	movups 0x110(%r10),%xmm1
    4edb:	00 
    4edc:	41 0f 11 81 00 01 00 	movups %xmm0,0x100(%r9)
    4ee3:	00 
    4ee4:	41 0f 11 89 10 01 00 	movups %xmm1,0x110(%r9)
    4eeb:	00 
    4eec:	41 0f 10 82 20 01 00 	movups 0x120(%r10),%xmm0
    4ef3:	00 
    4ef4:	41 0f 10 8a 30 01 00 	movups 0x130(%r10),%xmm1
    4efb:	00 
    4efc:	41 0f 11 81 20 01 00 	movups %xmm0,0x120(%r9)
    4f03:	00 
    4f04:	41 0f 11 89 30 01 00 	movups %xmm1,0x130(%r9)
    4f0b:	00 
    4f0c:	41 0f 10 82 40 01 00 	movups 0x140(%r10),%xmm0
    4f13:	00 
    4f14:	41 0f 10 8a 50 01 00 	movups 0x150(%r10),%xmm1
    4f1b:	00 
    4f1c:	41 0f 11 81 40 01 00 	movups %xmm0,0x140(%r9)
    4f23:	00 
    4f24:	41 0f 11 89 50 01 00 	movups %xmm1,0x150(%r9)
    4f2b:	00 
    4f2c:	41 0f 10 82 60 01 00 	movups 0x160(%r10),%xmm0
    4f33:	00 
    4f34:	41 0f 10 8a 70 01 00 	movups 0x170(%r10),%xmm1
    4f3b:	00 
    4f3c:	41 0f 11 81 60 01 00 	movups %xmm0,0x160(%r9)
    4f43:	00 
    4f44:	41 0f 11 89 70 01 00 	movups %xmm1,0x170(%r9)
    4f4b:	00 
    4f4c:	41 0f 10 82 80 01 00 	movups 0x180(%r10),%xmm0
    4f53:	00 
    4f54:	41 0f 10 8a 90 01 00 	movups 0x190(%r10),%xmm1
    4f5b:	00 
    4f5c:	41 0f 11 81 80 01 00 	movups %xmm0,0x180(%r9)
    4f63:	00 
    4f64:	41 0f 11 89 90 01 00 	movups %xmm1,0x190(%r9)
    4f6b:	00 
    4f6c:	41 0f 10 82 a0 01 00 	movups 0x1a0(%r10),%xmm0
    4f73:	00 
    4f74:	41 0f 10 8a b0 01 00 	movups 0x1b0(%r10),%xmm1
    4f7b:	00 
    4f7c:	41 0f 11 81 a0 01 00 	movups %xmm0,0x1a0(%r9)
    4f83:	00 
    4f84:	41 0f 11 89 b0 01 00 	movups %xmm1,0x1b0(%r9)
    4f8b:	00 
    4f8c:	41 0f 10 82 c0 01 00 	movups 0x1c0(%r10),%xmm0
    4f93:	00 
    4f94:	41 0f 10 8a d0 01 00 	movups 0x1d0(%r10),%xmm1
    4f9b:	00 
    4f9c:	41 0f 11 81 c0 01 00 	movups %xmm0,0x1c0(%r9)
    4fa3:	00 
    4fa4:	41 0f 11 89 d0 01 00 	movups %xmm1,0x1d0(%r9)
    4fab:	00 
    4fac:	41 0f 10 82 e0 01 00 	movups 0x1e0(%r10),%xmm0
    4fb3:	00 
    4fb4:	41 0f 10 8a f0 01 00 	movups 0x1f0(%r10),%xmm1
    4fbb:	00 
    4fbc:	41 0f 11 81 e0 01 00 	movups %xmm0,0x1e0(%r9)
    4fc3:	00 
    4fc4:	41 0f 11 89 f0 01 00 	movups %xmm1,0x1f0(%r9)
    4fcb:	00 
    4fcc:	48 ff 87 08 00 01 00 	incq   0x10008(%rdi)
    4fd3:	49 ff c0             	inc    %r8
    4fd6:	48 81 c1 04 02 00 00 	add    $0x204,%rcx
    4fdd:	44 3b 06             	cmp    (%rsi),%r8d
    4fe0:	0f 83 bd 00 00 00    	jae    50a3 <m16_journal_commit+0xc83>
    4fe6:	45 89 c1             	mov    %r8d,%r9d
    4fe9:	4d 89 ca             	mov    %r9,%r10
    4fec:	49 c1 e2 09          	shl    $0x9,%r10
    4ff0:	4f 8d 14 8a          	lea    (%r10,%r9,4),%r10
    4ff4:	46 8b 4c 16 04       	mov    0x4(%rsi,%r10,1),%r9d
    4ff9:	49 83 f9 7f          	cmp    $0x7f,%r9
    4ffd:	0f 87 e1 fb ff ff    	ja     4be4 <m16_journal_commit+0x7c4>
    5003:	44 39 8f 00 00 01 00 	cmp    %r9d,0x10000(%rdi)
    500a:	0f 86 d4 fb ff ff    	jbe    4be4 <m16_journal_commit+0x7c4>
    5010:	4d 69 d8 fc fd ff ff 	imul   $0xfffffffffffffdfc,%r8,%r11
    5017:	49 01 c3             	add    %rax,%r11
    501a:	8b 9f 10 00 01 00    	mov    0x10010(%rdi),%ebx
    5020:	85 db                	test   %ebx,%ebx
    5022:	74 68                	je     508c <m16_journal_commit+0xc6c>
    5024:	7e 08                	jle    502e <m16_journal_commit+0xc0e>
    5026:	ff cb                	dec    %ebx
    5028:	89 9f 10 00 01 00    	mov    %ebx,0x10010(%rdi)
    502e:	49 c1 e1 09          	shl    $0x9,%r9
    5032:	4d 01 cb             	add    %r9,%r11
    5035:	49 83 fb 1f          	cmp    $0x1f,%r11
    5039:	0f 87 b5 fd ff ff    	ja     4df4 <m16_journal_commit+0x9d4>
    503f:	49 01 d1             	add    %rdx,%r9
    5042:	45 31 d2             	xor    %r10d,%r10d
    5045:	66 66 2e 0f 1f 84 00 	data16 cs nopw 0x0(%rax,%rax,1)
    504c:	00 00 00 00 
    5050:	46 0f b6 5c 11 fd    	movzbl -0x3(%rcx,%r10,1),%r11d
    5056:	47 88 5c 11 fd       	mov    %r11b,-0x3(%r9,%r10,1)
    505b:	46 0f b6 5c 11 fe    	movzbl -0x2(%rcx,%r10,1),%r11d
    5061:	47 88 5c 11 fe       	mov    %r11b,-0x2(%r9,%r10,1)
    5066:	46 0f b6 5c 11 ff    	movzbl -0x1(%rcx,%r10,1),%r11d
    506c:	47 88 5c 11 ff       	mov    %r11b,-0x1(%r9,%r10,1)
    5071:	46 0f b6 1c 11       	movzbl (%rcx,%r10,1),%r11d
    5076:	47 88 1c 11          	mov    %r11b,(%r9,%r10,1)
    507a:	49 83 c2 04          	add    $0x4,%r10
    507e:	49 81 fa 00 02 00 00 	cmp    $0x200,%r10
    5085:	75 c9                	jne    5050 <m16_journal_commit+0xc30>
    5087:	e9 40 ff ff ff       	jmp    4fcc <m16_journal_commit+0xbac>
    508c:	b8 fe ff ff ff       	mov    $0xfffffffe,%eax
    5091:	48 81 c4 38 02 00 00 	add    $0x238,%rsp
    5098:	5b                   	pop    %rbx
    5099:	41 5c                	pop    %r12
    509b:	41 5d                	pop    %r13
    509d:	41 5e                	pop    %r14
    509f:	41 5f                	pop    %r15
    50a1:	5d                   	pop    %rbp
    50a2:	c3                   	ret
    50a3:	e8 c8 b7 ff ff       	call   870 <m16_journal_clear>
    50a8:	eb e7                	jmp    5091 <m16_journal_commit+0xc71>
    50aa:	66 0f 1f 44 00 00    	nopw   0x0(%rax,%rax,1)

00000000000050b0 <m16_write_file>:
    50b0:	55                   	push   %rbp
    50b1:	48 89 e5             	mov    %rsp,%rbp
    50b4:	45 31 c0             	xor    %r8d,%r8d
    50b7:	5d                   	pop    %rbp
    50b8:	e9 00 00 00 00       	jmp    50bd <m16_write_file+0xd>
			50b9: R_X86_64_PLT32	m16_write_file_ex-0x4
    50bd:	0f 1f 00             	nopl   (%rax)

00000000000050c0 <m16_read_file>:
    50c0:	55                   	push   %rbp
    50c1:	48 89 e5             	mov    %rsp,%rbp
    50c4:	41 57                	push   %r15
    50c6:	41 56                	push   %r14
    50c8:	41 55                	push   %r13
    50ca:	41 54                	push   %r12
    50cc:	53                   	push   %rbx
    50cd:	48 81 ec 08 0c 00 00 	sub    $0xc08,%rsp
    50d4:	48 89 fb             	mov    %rdi,%rbx
    50d7:	66 48 0f 6e c7       	movq   %rdi,%xmm0
    50dc:	66 48 0f 6e ce       	movq   %rsi,%xmm1
    50e1:	66 0f 6c c8          	punpcklqdq %xmm0,%xmm1
    50e5:	66 49 0f 6e c0       	movq   %r8,%xmm0
    50ea:	66 48 0f 6e d2       	movq   %rdx,%xmm2
    50ef:	66 0f 6c d0          	punpcklqdq %xmm0,%xmm2
    50f3:	66 0f ef c0          	pxor   %xmm0,%xmm0
    50f7:	66 0f 76 d0          	pcmpeqd %xmm0,%xmm2
    50fb:	66 0f 76 c8          	pcmpeqd %xmm0,%xmm1
    50ff:	66 0f 6f c1          	movdqa %xmm1,%xmm0
    5103:	0f c6 c2 dd          	shufps $0xdd,%xmm2,%xmm0
    5107:	0f c6 ca 88          	shufps $0x88,%xmm2,%xmm1
    510b:	0f 54 c8             	andps  %xmm0,%xmm1
    510e:	0f 50 f9             	movmskps %xmm1,%edi
    5111:	b8 ff ff ff ff       	mov    $0xffffffff,%eax
    5116:	85 ff                	test   %edi,%edi
    5118:	75 18                	jne    5132 <m16_read_file+0x72>
    511a:	49 89 f4             	mov    %rsi,%r12
    511d:	41 89 cd             	mov    %ecx,%r13d
    5120:	49 89 d7             	mov    %rdx,%r15
    5123:	4d 89 c6             	mov    %r8,%r14
    5126:	48 89 df             	mov    %rbx,%rdi
    5129:	e8 00 00 00 00       	call   512e <m16_read_file+0x6e>
			512a: R_X86_64_PLT32	m16_journal_recover-0x4
    512e:	85 c0                	test   %eax,%eax
    5130:	74 12                	je     5144 <m16_read_file+0x84>
    5132:	48 81 c4 08 0c 00 00 	add    $0xc08,%rsp
    5139:	5b                   	pop    %rbx
    513a:	41 5c                	pop    %r12
    513c:	41 5d                	pop    %r13
    513e:	41 5e                	pop    %r14
    5140:	41 5f                	pop    %r15
    5142:	5d                   	pop    %rbp
    5143:	c3                   	ret
    5144:	8b 8b 00 00 01 00    	mov    0x10000(%rbx),%ecx
    514a:	b8 ff ff ff ff       	mov    $0xffffffff,%eax
    514f:	85 c9                	test   %ecx,%ecx
    5151:	74 df                	je     5132 <m16_read_file+0x72>
    5153:	f3 0f 6f 03          	movdqu (%rbx),%xmm0
    5157:	66 48 0f 7e c2       	movq   %xmm0,%rdx
    515c:	48 be 31 4a 56 31 46 	movabs $0x4d43534631564a31,%rsi
    5163:	53 43 4d 
    5166:	b8 fa ff ff ff       	mov    $0xfffffffa,%eax
    516b:	48 39 f2             	cmp    %rsi,%rdx
    516e:	75 c2                	jne    5132 <m16_read_file+0x72>
    5170:	66 0f 70 c8 ee       	pshufd $0xee,%xmm0,%xmm1
    5175:	66 0f 7e ca          	movd   %xmm1,%edx
    5179:	83 fa 01             	cmp    $0x1,%edx
    517c:	75 b4                	jne    5132 <m16_read_file+0x72>
    517e:	66 0f 70 c0 ff       	pshufd $0xff,%xmm0,%xmm0
    5183:	66 0f 7e c2          	movd   %xmm0,%edx
    5187:	81 fa 00 02 00 00    	cmp    $0x200,%edx
    518d:	75 a3                	jne    5132 <m16_read_file+0x72>
    518f:	83 7b 30 19          	cmpl   $0x19,0x30(%rbx)
    5193:	75 9d                	jne    5132 <m16_read_file+0x72>
    5195:	f3 0f 6f 43 20       	movdqu 0x20(%rbx),%xmm0
    519a:	66 0f 70 c0 ff       	pshufd $0xff,%xmm0,%xmm0
    519f:	66 0f 7e c2          	movd   %xmm0,%edx
    51a3:	83 fa 18             	cmp    $0x18,%edx
    51a6:	75 8a                	jne    5132 <m16_read_file+0x72>
    51a8:	83 f9 15             	cmp    $0x15,%ecx
    51ab:	0f 82 2a 07 00 00    	jb     58db <m16_read_file+0x81b>
    51b1:	0f 10 83 00 28 00 00 	movups 0x2800(%rbx),%xmm0
    51b8:	0f 10 8b 10 28 00 00 	movups 0x2810(%rbx),%xmm1
    51bf:	0f 29 85 d0 f3 ff ff 	movaps %xmm0,-0xc30(%rbp)
    51c6:	0f 29 8d e0 f3 ff ff 	movaps %xmm1,-0xc20(%rbp)
    51cd:	0f 10 83 20 28 00 00 	movups 0x2820(%rbx),%xmm0
    51d4:	0f 10 8b 30 28 00 00 	movups 0x2830(%rbx),%xmm1
    51db:	0f 29 85 f0 f3 ff ff 	movaps %xmm0,-0xc10(%rbp)
    51e2:	0f 29 8d 00 f4 ff ff 	movaps %xmm1,-0xc00(%rbp)
    51e9:	0f 10 83 40 28 00 00 	movups 0x2840(%rbx),%xmm0
    51f0:	0f 10 8b 50 28 00 00 	movups 0x2850(%rbx),%xmm1
    51f7:	0f 29 85 10 f4 ff ff 	movaps %xmm0,-0xbf0(%rbp)
    51fe:	0f 29 8d 20 f4 ff ff 	movaps %xmm1,-0xbe0(%rbp)
    5205:	0f 10 83 60 28 00 00 	movups 0x2860(%rbx),%xmm0
    520c:	0f 10 8b 70 28 00 00 	movups 0x2870(%rbx),%xmm1
    5213:	0f 29 85 30 f4 ff ff 	movaps %xmm0,-0xbd0(%rbp)
    521a:	0f 29 8d 40 f4 ff ff 	movaps %xmm1,-0xbc0(%rbp)
    5221:	0f 10 83 80 28 00 00 	movups 0x2880(%rbx),%xmm0
    5228:	0f 10 8b 90 28 00 00 	movups 0x2890(%rbx),%xmm1
    522f:	0f 29 85 50 f4 ff ff 	movaps %xmm0,-0xbb0(%rbp)
    5236:	0f 29 8d 60 f4 ff ff 	movaps %xmm1,-0xba0(%rbp)
    523d:	0f 10 83 a0 28 00 00 	movups 0x28a0(%rbx),%xmm0
    5244:	0f 10 8b b0 28 00 00 	movups 0x28b0(%rbx),%xmm1
    524b:	0f 29 85 70 f4 ff ff 	movaps %xmm0,-0xb90(%rbp)
    5252:	0f 29 8d 80 f4 ff ff 	movaps %xmm1,-0xb80(%rbp)
    5259:	0f 10 83 c0 28 00 00 	movups 0x28c0(%rbx),%xmm0
    5260:	0f 10 8b d0 28 00 00 	movups 0x28d0(%rbx),%xmm1
    5267:	0f 29 85 90 f4 ff ff 	movaps %xmm0,-0xb70(%rbp)
    526e:	0f 29 8d a0 f4 ff ff 	movaps %xmm1,-0xb60(%rbp)
    5275:	0f 10 83 e0 28 00 00 	movups 0x28e0(%rbx),%xmm0
    527c:	0f 10 8b f0 28 00 00 	movups 0x28f0(%rbx),%xmm1
    5283:	0f 29 85 b0 f4 ff ff 	movaps %xmm0,-0xb50(%rbp)
    528a:	0f 29 8d c0 f4 ff ff 	movaps %xmm1,-0xb40(%rbp)
    5291:	0f 10 83 00 29 00 00 	movups 0x2900(%rbx),%xmm0
    5298:	0f 10 8b 10 29 00 00 	movups 0x2910(%rbx),%xmm1
    529f:	0f 29 85 d0 f4 ff ff 	movaps %xmm0,-0xb30(%rbp)
    52a6:	0f 29 8d e0 f4 ff ff 	movaps %xmm1,-0xb20(%rbp)
    52ad:	0f 10 83 20 29 00 00 	movups 0x2920(%rbx),%xmm0
    52b4:	0f 10 8b 30 29 00 00 	movups 0x2930(%rbx),%xmm1
    52bb:	0f 29 85 f0 f4 ff ff 	movaps %xmm0,-0xb10(%rbp)
    52c2:	0f 29 8d 00 f5 ff ff 	movaps %xmm1,-0xb00(%rbp)
    52c9:	0f 10 83 40 29 00 00 	movups 0x2940(%rbx),%xmm0
    52d0:	0f 10 8b 50 29 00 00 	movups 0x2950(%rbx),%xmm1
    52d7:	0f 29 85 10 f5 ff ff 	movaps %xmm0,-0xaf0(%rbp)
    52de:	0f 29 8d 20 f5 ff ff 	movaps %xmm1,-0xae0(%rbp)
    52e5:	0f 10 83 60 29 00 00 	movups 0x2960(%rbx),%xmm0
    52ec:	0f 10 8b 70 29 00 00 	movups 0x2970(%rbx),%xmm1
    52f3:	0f 29 85 30 f5 ff ff 	movaps %xmm0,-0xad0(%rbp)
    52fa:	0f 29 8d 40 f5 ff ff 	movaps %xmm1,-0xac0(%rbp)
    5301:	0f 10 83 80 29 00 00 	movups 0x2980(%rbx),%xmm0
    5308:	0f 10 8b 90 29 00 00 	movups 0x2990(%rbx),%xmm1
    530f:	0f 29 85 50 f5 ff ff 	movaps %xmm0,-0xab0(%rbp)
    5316:	0f 29 8d 60 f5 ff ff 	movaps %xmm1,-0xaa0(%rbp)
    531d:	0f 10 83 a0 29 00 00 	movups 0x29a0(%rbx),%xmm0
    5324:	0f 10 8b b0 29 00 00 	movups 0x29b0(%rbx),%xmm1
    532b:	0f 29 85 70 f5 ff ff 	movaps %xmm0,-0xa90(%rbp)
    5332:	0f 29 8d 80 f5 ff ff 	movaps %xmm1,-0xa80(%rbp)
    5339:	0f 10 83 c0 29 00 00 	movups 0x29c0(%rbx),%xmm0
    5340:	0f 10 8b d0 29 00 00 	movups 0x29d0(%rbx),%xmm1
    5347:	0f 29 85 90 f5 ff ff 	movaps %xmm0,-0xa70(%rbp)
    534e:	0f 29 8d a0 f5 ff ff 	movaps %xmm1,-0xa60(%rbp)
    5355:	f3 0f 6f 83 e0 29 00 	movdqu 0x29e0(%rbx),%xmm0
    535c:	00 
    535d:	f3 0f 6f 8b f0 29 00 	movdqu 0x29f0(%rbx),%xmm1
    5364:	00 
    5365:	66 0f 7f 85 b0 f5 ff 	movdqa %xmm0,-0xa50(%rbp)
    536c:	ff 
    536d:	66 0f 7f 8d c0 f5 ff 	movdqa %xmm1,-0xa40(%rbp)
    5374:	ff 
    5375:	0f 84 60 05 00 00    	je     58db <m16_read_file+0x81b>
    537b:	0f 10 83 00 2a 00 00 	movups 0x2a00(%rbx),%xmm0
    5382:	0f 10 8b 10 2a 00 00 	movups 0x2a10(%rbx),%xmm1
    5389:	0f 29 85 d0 f5 ff ff 	movaps %xmm0,-0xa30(%rbp)
    5390:	0f 29 8d e0 f5 ff ff 	movaps %xmm1,-0xa20(%rbp)
    5397:	0f 10 83 20 2a 00 00 	movups 0x2a20(%rbx),%xmm0
    539e:	0f 10 8b 30 2a 00 00 	movups 0x2a30(%rbx),%xmm1
    53a5:	0f 29 85 f0 f5 ff ff 	movaps %xmm0,-0xa10(%rbp)
    53ac:	0f 29 8d 00 f6 ff ff 	movaps %xmm1,-0xa00(%rbp)
    53b3:	0f 10 83 40 2a 00 00 	movups 0x2a40(%rbx),%xmm0
    53ba:	0f 10 8b 50 2a 00 00 	movups 0x2a50(%rbx),%xmm1
    53c1:	0f 29 85 10 f6 ff ff 	movaps %xmm0,-0x9f0(%rbp)
    53c8:	0f 29 8d 20 f6 ff ff 	movaps %xmm1,-0x9e0(%rbp)
    53cf:	0f 10 83 60 2a 00 00 	movups 0x2a60(%rbx),%xmm0
    53d6:	0f 10 8b 70 2a 00 00 	movups 0x2a70(%rbx),%xmm1
    53dd:	0f 29 85 30 f6 ff ff 	movaps %xmm0,-0x9d0(%rbp)
    53e4:	0f 29 8d 40 f6 ff ff 	movaps %xmm1,-0x9c0(%rbp)
    53eb:	0f 10 83 80 2a 00 00 	movups 0x2a80(%rbx),%xmm0
    53f2:	0f 10 8b 90 2a 00 00 	movups 0x2a90(%rbx),%xmm1
    53f9:	0f 29 85 50 f6 ff ff 	movaps %xmm0,-0x9b0(%rbp)
    5400:	0f 29 8d 60 f6 ff ff 	movaps %xmm1,-0x9a0(%rbp)
    5407:	0f 10 83 a0 2a 00 00 	movups 0x2aa0(%rbx),%xmm0
    540e:	0f 10 8b b0 2a 00 00 	movups 0x2ab0(%rbx),%xmm1
    5415:	0f 29 85 70 f6 ff ff 	movaps %xmm0,-0x990(%rbp)
    541c:	0f 29 8d 80 f6 ff ff 	movaps %xmm1,-0x980(%rbp)
    5423:	0f 10 83 c0 2a 00 00 	movups 0x2ac0(%rbx),%xmm0
    542a:	0f 10 8b d0 2a 00 00 	movups 0x2ad0(%rbx),%xmm1
    5431:	0f 29 85 90 f6 ff ff 	movaps %xmm0,-0x970(%rbp)
    5438:	0f 29 8d a0 f6 ff ff 	movaps %xmm1,-0x960(%rbp)
    543f:	0f 10 83 e0 2a 00 00 	movups 0x2ae0(%rbx),%xmm0
    5446:	0f 10 8b f0 2a 00 00 	movups 0x2af0(%rbx),%xmm1
    544d:	0f 29 85 b0 f6 ff ff 	movaps %xmm0,-0x950(%rbp)
    5454:	0f 29 8d c0 f6 ff ff 	movaps %xmm1,-0x940(%rbp)
    545b:	0f 10 83 00 2b 00 00 	movups 0x2b00(%rbx),%xmm0
    5462:	0f 10 8b 10 2b 00 00 	movups 0x2b10(%rbx),%xmm1
    5469:	0f 29 85 d0 f6 ff ff 	movaps %xmm0,-0x930(%rbp)
    5470:	0f 29 8d e0 f6 ff ff 	movaps %xmm1,-0x920(%rbp)
    5477:	0f 10 83 20 2b 00 00 	movups 0x2b20(%rbx),%xmm0
    547e:	0f 10 8b 30 2b 00 00 	movups 0x2b30(%rbx),%xmm1
    5485:	0f 29 85 f0 f6 ff ff 	movaps %xmm0,-0x910(%rbp)
    548c:	0f 29 8d 00 f7 ff ff 	movaps %xmm1,-0x900(%rbp)
    5493:	0f 10 83 40 2b 00 00 	movups 0x2b40(%rbx),%xmm0
    549a:	0f 10 8b 50 2b 00 00 	movups 0x2b50(%rbx),%xmm1
    54a1:	0f 29 85 10 f7 ff ff 	movaps %xmm0,-0x8f0(%rbp)
    54a8:	0f 29 8d 20 f7 ff ff 	movaps %xmm1,-0x8e0(%rbp)
    54af:	0f 10 83 60 2b 00 00 	movups 0x2b60(%rbx),%xmm0
    54b6:	0f 10 8b 70 2b 00 00 	movups 0x2b70(%rbx),%xmm1
    54bd:	0f 29 85 30 f7 ff ff 	movaps %xmm0,-0x8d0(%rbp)
    54c4:	0f 29 8d 40 f7 ff ff 	movaps %xmm1,-0x8c0(%rbp)
    54cb:	0f 10 83 80 2b 00 00 	movups 0x2b80(%rbx),%xmm0
    54d2:	0f 10 8b 90 2b 00 00 	movups 0x2b90(%rbx),%xmm1
    54d9:	0f 29 85 50 f7 ff ff 	movaps %xmm0,-0x8b0(%rbp)
    54e0:	0f 29 8d 60 f7 ff ff 	movaps %xmm1,-0x8a0(%rbp)
    54e7:	0f 10 83 a0 2b 00 00 	movups 0x2ba0(%rbx),%xmm0
    54ee:	0f 10 8b b0 2b 00 00 	movups 0x2bb0(%rbx),%xmm1
    54f5:	0f 29 85 70 f7 ff ff 	movaps %xmm0,-0x890(%rbp)
    54fc:	0f 29 8d 80 f7 ff ff 	movaps %xmm1,-0x880(%rbp)
    5503:	0f 10 83 c0 2b 00 00 	movups 0x2bc0(%rbx),%xmm0
    550a:	0f 10 8b d0 2b 00 00 	movups 0x2bd0(%rbx),%xmm1
    5511:	0f 29 85 90 f7 ff ff 	movaps %xmm0,-0x870(%rbp)
    5518:	0f 29 8d a0 f7 ff ff 	movaps %xmm1,-0x860(%rbp)
    551f:	f3 0f 6f 83 e0 2b 00 	movdqu 0x2be0(%rbx),%xmm0
    5526:	00 
    5527:	f3 0f 6f 8b f0 2b 00 	movdqu 0x2bf0(%rbx),%xmm1
    552e:	00 
    552f:	66 0f 7f 85 b0 f7 ff 	movdqa %xmm0,-0x850(%rbp)
    5536:	ff 
    5537:	66 0f 7f 8d c0 f7 ff 	movdqa %xmm1,-0x840(%rbp)
    553e:	ff 
    553f:	83 f9 17             	cmp    $0x17,%ecx
    5542:	0f 82 93 03 00 00    	jb     58db <m16_read_file+0x81b>
    5548:	0f 10 83 00 2c 00 00 	movups 0x2c00(%rbx),%xmm0
    554f:	0f 10 8b 10 2c 00 00 	movups 0x2c10(%rbx),%xmm1
    5556:	0f 29 85 d0 f7 ff ff 	movaps %xmm0,-0x830(%rbp)
    555d:	0f 29 8d e0 f7 ff ff 	movaps %xmm1,-0x820(%rbp)
    5564:	0f 10 83 20 2c 00 00 	movups 0x2c20(%rbx),%xmm0
    556b:	0f 10 8b 30 2c 00 00 	movups 0x2c30(%rbx),%xmm1
    5572:	0f 29 85 f0 f7 ff ff 	movaps %xmm0,-0x810(%rbp)
    5579:	0f 29 8d 00 f8 ff ff 	movaps %xmm1,-0x800(%rbp)
    5580:	0f 10 83 40 2c 00 00 	movups 0x2c40(%rbx),%xmm0
    5587:	0f 10 8b 50 2c 00 00 	movups 0x2c50(%rbx),%xmm1
    558e:	0f 29 85 10 f8 ff ff 	movaps %xmm0,-0x7f0(%rbp)
    5595:	0f 29 8d 20 f8 ff ff 	movaps %xmm1,-0x7e0(%rbp)
    559c:	0f 10 83 60 2c 00 00 	movups 0x2c60(%rbx),%xmm0
    55a3:	0f 10 8b 70 2c 00 00 	movups 0x2c70(%rbx),%xmm1
    55aa:	0f 29 85 30 f8 ff ff 	movaps %xmm0,-0x7d0(%rbp)
    55b1:	0f 29 8d 40 f8 ff ff 	movaps %xmm1,-0x7c0(%rbp)
    55b8:	0f 10 83 80 2c 00 00 	movups 0x2c80(%rbx),%xmm0
    55bf:	0f 10 8b 90 2c 00 00 	movups 0x2c90(%rbx),%xmm1
    55c6:	0f 29 85 50 f8 ff ff 	movaps %xmm0,-0x7b0(%rbp)
    55cd:	0f 29 8d 60 f8 ff ff 	movaps %xmm1,-0x7a0(%rbp)
    55d4:	0f 10 83 a0 2c 00 00 	movups 0x2ca0(%rbx),%xmm0
    55db:	0f 10 8b b0 2c 00 00 	movups 0x2cb0(%rbx),%xmm1
    55e2:	0f 29 85 70 f8 ff ff 	movaps %xmm0,-0x790(%rbp)
    55e9:	0f 29 8d 80 f8 ff ff 	movaps %xmm1,-0x780(%rbp)
    55f0:	0f 10 83 c0 2c 00 00 	movups 0x2cc0(%rbx),%xmm0
    55f7:	0f 10 8b d0 2c 00 00 	movups 0x2cd0(%rbx),%xmm1
    55fe:	0f 29 85 90 f8 ff ff 	movaps %xmm0,-0x770(%rbp)
    5605:	0f 29 8d a0 f8 ff ff 	movaps %xmm1,-0x760(%rbp)
    560c:	0f 10 83 e0 2c 00 00 	movups 0x2ce0(%rbx),%xmm0
    5613:	0f 10 8b f0 2c 00 00 	movups 0x2cf0(%rbx),%xmm1
    561a:	0f 29 85 b0 f8 ff ff 	movaps %xmm0,-0x750(%rbp)
    5621:	0f 29 8d c0 f8 ff ff 	movaps %xmm1,-0x740(%rbp)
    5628:	0f 10 83 00 2d 00 00 	movups 0x2d00(%rbx),%xmm0
    562f:	0f 10 8b 10 2d 00 00 	movups 0x2d10(%rbx),%xmm1
    5636:	0f 29 85 d0 f8 ff ff 	movaps %xmm0,-0x730(%rbp)
    563d:	0f 29 8d e0 f8 ff ff 	movaps %xmm1,-0x720(%rbp)
    5644:	0f 10 83 20 2d 00 00 	movups 0x2d20(%rbx),%xmm0
    564b:	0f 10 8b 30 2d 00 00 	movups 0x2d30(%rbx),%xmm1
    5652:	0f 29 85 f0 f8 ff ff 	movaps %xmm0,-0x710(%rbp)
    5659:	0f 29 8d 00 f9 ff ff 	movaps %xmm1,-0x700(%rbp)
    5660:	0f 10 83 40 2d 00 00 	movups 0x2d40(%rbx),%xmm0
    5667:	0f 10 8b 50 2d 00 00 	movups 0x2d50(%rbx),%xmm1
    566e:	0f 29 85 10 f9 ff ff 	movaps %xmm0,-0x6f0(%rbp)
    5675:	0f 29 8d 20 f9 ff ff 	movaps %xmm1,-0x6e0(%rbp)
    567c:	0f 10 83 60 2d 00 00 	movups 0x2d60(%rbx),%xmm0
    5683:	0f 10 8b 70 2d 00 00 	movups 0x2d70(%rbx),%xmm1
    568a:	0f 29 85 30 f9 ff ff 	movaps %xmm0,-0x6d0(%rbp)
    5691:	0f 29 8d 40 f9 ff ff 	movaps %xmm1,-0x6c0(%rbp)
    5698:	0f 10 83 80 2d 00 00 	movups 0x2d80(%rbx),%xmm0
    569f:	0f 10 8b 90 2d 00 00 	movups 0x2d90(%rbx),%xmm1
    56a6:	0f 29 85 50 f9 ff ff 	movaps %xmm0,-0x6b0(%rbp)
    56ad:	0f 29 8d 60 f9 ff ff 	movaps %xmm1,-0x6a0(%rbp)
    56b4:	0f 10 83 a0 2d 00 00 	movups 0x2da0(%rbx),%xmm0
    56bb:	0f 10 8b b0 2d 00 00 	movups 0x2db0(%rbx),%xmm1
    56c2:	0f 29 85 70 f9 ff ff 	movaps %xmm0,-0x690(%rbp)
    56c9:	0f 29 8d 80 f9 ff ff 	movaps %xmm1,-0x680(%rbp)
    56d0:	0f 10 83 c0 2d 00 00 	movups 0x2dc0(%rbx),%xmm0
    56d7:	0f 10 8b d0 2d 00 00 	movups 0x2dd0(%rbx),%xmm1
    56de:	0f 29 85 90 f9 ff ff 	movaps %xmm0,-0x670(%rbp)
    56e5:	0f 29 8d a0 f9 ff ff 	movaps %xmm1,-0x660(%rbp)
    56ec:	f3 0f 6f 83 e0 2d 00 	movdqu 0x2de0(%rbx),%xmm0
    56f3:	00 
    56f4:	f3 0f 6f 8b f0 2d 00 	movdqu 0x2df0(%rbx),%xmm1
    56fb:	00 
    56fc:	66 0f 7f 85 b0 f9 ff 	movdqa %xmm0,-0x650(%rbp)
    5703:	ff 
    5704:	66 0f 7f 8d c0 f9 ff 	movdqa %xmm1,-0x640(%rbp)
    570b:	ff 
    570c:	0f 84 c9 01 00 00    	je     58db <m16_read_file+0x81b>
    5712:	0f 10 83 00 2e 00 00 	movups 0x2e00(%rbx),%xmm0
    5719:	0f 10 8b 10 2e 00 00 	movups 0x2e10(%rbx),%xmm1
    5720:	0f 29 85 d0 f9 ff ff 	movaps %xmm0,-0x630(%rbp)
    5727:	0f 29 8d e0 f9 ff ff 	movaps %xmm1,-0x620(%rbp)
    572e:	0f 10 83 20 2e 00 00 	movups 0x2e20(%rbx),%xmm0
    5735:	0f 10 8b 30 2e 00 00 	movups 0x2e30(%rbx),%xmm1
    573c:	0f 29 85 f0 f9 ff ff 	movaps %xmm0,-0x610(%rbp)
    5743:	0f 29 8d 00 fa ff ff 	movaps %xmm1,-0x600(%rbp)
    574a:	0f 10 83 40 2e 00 00 	movups 0x2e40(%rbx),%xmm0
    5751:	0f 10 8b 50 2e 00 00 	movups 0x2e50(%rbx),%xmm1
    5758:	0f 29 85 10 fa ff ff 	movaps %xmm0,-0x5f0(%rbp)
    575f:	0f 29 8d 20 fa ff ff 	movaps %xmm1,-0x5e0(%rbp)
    5766:	0f 10 83 60 2e 00 00 	movups 0x2e60(%rbx),%xmm0
    576d:	0f 10 8b 70 2e 00 00 	movups 0x2e70(%rbx),%xmm1
    5774:	0f 29 85 30 fa ff ff 	movaps %xmm0,-0x5d0(%rbp)
    577b:	0f 29 8d 40 fa ff ff 	movaps %xmm1,-0x5c0(%rbp)
    5782:	0f 10 83 80 2e 00 00 	movups 0x2e80(%rbx),%xmm0
    5789:	0f 10 8b 90 2e 00 00 	movups 0x2e90(%rbx),%xmm1
    5790:	0f 29 85 50 fa ff ff 	movaps %xmm0,-0x5b0(%rbp)
    5797:	0f 29 8d 60 fa ff ff 	movaps %xmm1,-0x5a0(%rbp)
    579e:	0f 10 83 a0 2e 00 00 	movups 0x2ea0(%rbx),%xmm0
    57a5:	0f 10 8b b0 2e 00 00 	movups 0x2eb0(%rbx),%xmm1
    57ac:	0f 29 85 70 fa ff ff 	movaps %xmm0,-0x590(%rbp)
    57b3:	0f 29 8d 80 fa ff ff 	movaps %xmm1,-0x580(%rbp)
    57ba:	0f 10 83 c0 2e 00 00 	movups 0x2ec0(%rbx),%xmm0
    57c1:	0f 10 8b d0 2e 00 00 	movups 0x2ed0(%rbx),%xmm1
    57c8:	0f 29 85 90 fa ff ff 	movaps %xmm0,-0x570(%rbp)
    57cf:	0f 29 8d a0 fa ff ff 	movaps %xmm1,-0x560(%rbp)
    57d6:	0f 10 83 e0 2e 00 00 	movups 0x2ee0(%rbx),%xmm0
    57dd:	0f 10 8b f0 2e 00 00 	movups 0x2ef0(%rbx),%xmm1
    57e4:	0f 29 85 b0 fa ff ff 	movaps %xmm0,-0x550(%rbp)
    57eb:	0f 29 8d c0 fa ff ff 	movaps %xmm1,-0x540(%rbp)
    57f2:	0f 10 83 00 2f 00 00 	movups 0x2f00(%rbx),%xmm0
    57f9:	0f 10 8b 10 2f 00 00 	movups 0x2f10(%rbx),%xmm1
    5800:	0f 29 85 d0 fa ff ff 	movaps %xmm0,-0x530(%rbp)
    5807:	0f 29 8d e0 fa ff ff 	movaps %xmm1,-0x520(%rbp)
    580e:	0f 10 83 20 2f 00 00 	movups 0x2f20(%rbx),%xmm0
    5815:	0f 10 8b 30 2f 00 00 	movups 0x2f30(%rbx),%xmm1
    581c:	0f 29 85 f0 fa ff ff 	movaps %xmm0,-0x510(%rbp)
    5823:	0f 29 8d 00 fb ff ff 	movaps %xmm1,-0x500(%rbp)
    582a:	0f 10 83 40 2f 00 00 	movups 0x2f40(%rbx),%xmm0
    5831:	0f 10 8b 50 2f 00 00 	movups 0x2f50(%rbx),%xmm1
    5838:	0f 29 85 10 fb ff ff 	movaps %xmm0,-0x4f0(%rbp)
    583f:	0f 29 8d 20 fb ff ff 	movaps %xmm1,-0x4e0(%rbp)
    5846:	0f 10 83 60 2f 00 00 	movups 0x2f60(%rbx),%xmm0
    584d:	0f 10 8b 70 2f 00 00 	movups 0x2f70(%rbx),%xmm1
    5854:	0f 29 85 30 fb ff ff 	movaps %xmm0,-0x4d0(%rbp)
    585b:	0f 29 8d 40 fb ff ff 	movaps %xmm1,-0x4c0(%rbp)
    5862:	0f 10 83 80 2f 00 00 	movups 0x2f80(%rbx),%xmm0
    5869:	0f 10 8b 90 2f 00 00 	movups 0x2f90(%rbx),%xmm1
    5870:	0f 29 85 50 fb ff ff 	movaps %xmm0,-0x4b0(%rbp)
    5877:	0f 29 8d 60 fb ff ff 	movaps %xmm1,-0x4a0(%rbp)
    587e:	0f 10 83 a0 2f 00 00 	movups 0x2fa0(%rbx),%xmm0
    5885:	0f 10 8b b0 2f 00 00 	movups 0x2fb0(%rbx),%xmm1
    588c:	0f 29 85 70 fb ff ff 	movaps %xmm0,-0x490(%rbp)
    5893:	0f 29 8d 80 fb ff ff 	movaps %xmm1,-0x480(%rbp)
    589a:	0f 10 83 c0 2f 00 00 	movups 0x2fc0(%rbx),%xmm0
    58a1:	0f 10 8b d0 2f 00 00 	movups 0x2fd0(%rbx),%xmm1
    58a8:	0f 29 85 90 fb ff ff 	movaps %xmm0,-0x470(%rbp)
    58af:	0f 29 8d a0 fb ff ff 	movaps %xmm1,-0x460(%rbp)
    58b6:	f3 0f 6f 83 e0 2f 00 	movdqu 0x2fe0(%rbx),%xmm0
    58bd:	00 
    58be:	f3 0f 6f 8b f0 2f 00 	movdqu 0x2ff0(%rbx),%xmm1
    58c5:	00 
    58c6:	66 0f 7f 85 b0 fb ff 	movdqa %xmm0,-0x450(%rbp)
    58cd:	ff 
    58ce:	66 0f 7f 8d c0 fb ff 	movdqa %xmm1,-0x440(%rbp)
    58d5:	ff 
    58d6:	83 f9 19             	cmp    $0x19,%ecx
    58d9:	73 0a                	jae    58e5 <m16_read_file+0x825>
    58db:	b8 ff ff ff ff       	mov    $0xffffffff,%eax
    58e0:	e9 4d f8 ff ff       	jmp    5132 <m16_read_file+0x72>
    58e5:	0f 10 83 00 30 00 00 	movups 0x3000(%rbx),%xmm0
    58ec:	0f 10 8b 10 30 00 00 	movups 0x3010(%rbx),%xmm1
    58f3:	0f 29 85 d0 fb ff ff 	movaps %xmm0,-0x430(%rbp)
    58fa:	0f 29 8d e0 fb ff ff 	movaps %xmm1,-0x420(%rbp)
    5901:	0f 10 83 20 30 00 00 	movups 0x3020(%rbx),%xmm0
    5908:	0f 10 8b 30 30 00 00 	movups 0x3030(%rbx),%xmm1
    590f:	0f 29 85 f0 fb ff ff 	movaps %xmm0,-0x410(%rbp)
    5916:	0f 29 8d 00 fc ff ff 	movaps %xmm1,-0x400(%rbp)
    591d:	0f 10 83 40 30 00 00 	movups 0x3040(%rbx),%xmm0
    5924:	0f 10 8b 50 30 00 00 	movups 0x3050(%rbx),%xmm1
    592b:	0f 29 85 10 fc ff ff 	movaps %xmm0,-0x3f0(%rbp)
    5932:	0f 29 8d 20 fc ff ff 	movaps %xmm1,-0x3e0(%rbp)
    5939:	0f 10 83 60 30 00 00 	movups 0x3060(%rbx),%xmm0
    5940:	0f 10 8b 70 30 00 00 	movups 0x3070(%rbx),%xmm1
    5947:	0f 29 85 30 fc ff ff 	movaps %xmm0,-0x3d0(%rbp)
    594e:	0f 29 8d 40 fc ff ff 	movaps %xmm1,-0x3c0(%rbp)
    5955:	0f 10 83 80 30 00 00 	movups 0x3080(%rbx),%xmm0
    595c:	0f 10 8b 90 30 00 00 	movups 0x3090(%rbx),%xmm1
    5963:	0f 29 85 50 fc ff ff 	movaps %xmm0,-0x3b0(%rbp)
    596a:	0f 29 8d 60 fc ff ff 	movaps %xmm1,-0x3a0(%rbp)
    5971:	0f 10 83 a0 30 00 00 	movups 0x30a0(%rbx),%xmm0
    5978:	0f 10 8b b0 30 00 00 	movups 0x30b0(%rbx),%xmm1
    597f:	0f 29 85 70 fc ff ff 	movaps %xmm0,-0x390(%rbp)
    5986:	0f 29 8d 80 fc ff ff 	movaps %xmm1,-0x380(%rbp)
    598d:	0f 10 83 c0 30 00 00 	movups 0x30c0(%rbx),%xmm0
    5994:	0f 10 8b d0 30 00 00 	movups 0x30d0(%rbx),%xmm1
    599b:	0f 29 85 90 fc ff ff 	movaps %xmm0,-0x370(%rbp)
    59a2:	0f 29 8d a0 fc ff ff 	movaps %xmm1,-0x360(%rbp)
    59a9:	0f 10 83 e0 30 00 00 	movups 0x30e0(%rbx),%xmm0
    59b0:	0f 10 8b f0 30 00 00 	movups 0x30f0(%rbx),%xmm1
    59b7:	0f 29 85 b0 fc ff ff 	movaps %xmm0,-0x350(%rbp)
    59be:	0f 29 8d c0 fc ff ff 	movaps %xmm1,-0x340(%rbp)
    59c5:	0f 10 83 00 31 00 00 	movups 0x3100(%rbx),%xmm0
    59cc:	0f 10 8b 10 31 00 00 	movups 0x3110(%rbx),%xmm1
    59d3:	0f 29 85 d0 fc ff ff 	movaps %xmm0,-0x330(%rbp)
    59da:	0f 29 8d e0 fc ff ff 	movaps %xmm1,-0x320(%rbp)
    59e1:	0f 10 83 20 31 00 00 	movups 0x3120(%rbx),%xmm0
    59e8:	0f 10 8b 30 31 00 00 	movups 0x3130(%rbx),%xmm1
    59ef:	0f 29 85 f0 fc ff ff 	movaps %xmm0,-0x310(%rbp)
    59f6:	0f 29 8d 00 fd ff ff 	movaps %xmm1,-0x300(%rbp)
    59fd:	0f 10 83 40 31 00 00 	movups 0x3140(%rbx),%xmm0
    5a04:	0f 10 8b 50 31 00 00 	movups 0x3150(%rbx),%xmm1
    5a0b:	0f 29 85 10 fd ff ff 	movaps %xmm0,-0x2f0(%rbp)
    5a12:	0f 29 8d 20 fd ff ff 	movaps %xmm1,-0x2e0(%rbp)
    5a19:	0f 10 83 60 31 00 00 	movups 0x3160(%rbx),%xmm0
    5a20:	0f 10 8b 70 31 00 00 	movups 0x3170(%rbx),%xmm1
    5a27:	0f 29 85 30 fd ff ff 	movaps %xmm0,-0x2d0(%rbp)
    5a2e:	0f 29 8d 40 fd ff ff 	movaps %xmm1,-0x2c0(%rbp)
    5a35:	0f 10 83 80 31 00 00 	movups 0x3180(%rbx),%xmm0
    5a3c:	0f 10 8b 90 31 00 00 	movups 0x3190(%rbx),%xmm1
    5a43:	0f 29 85 50 fd ff ff 	movaps %xmm0,-0x2b0(%rbp)
    5a4a:	0f 29 8d 60 fd ff ff 	movaps %xmm1,-0x2a0(%rbp)
    5a51:	0f 10 83 a0 31 00 00 	movups 0x31a0(%rbx),%xmm0
    5a58:	0f 10 8b b0 31 00 00 	movups 0x31b0(%rbx),%xmm1
    5a5f:	0f 29 85 70 fd ff ff 	movaps %xmm0,-0x290(%rbp)
    5a66:	0f 29 8d 80 fd ff ff 	movaps %xmm1,-0x280(%rbp)
    5a6d:	0f 10 83 c0 31 00 00 	movups 0x31c0(%rbx),%xmm0
    5a74:	0f 10 8b d0 31 00 00 	movups 0x31d0(%rbx),%xmm1
    5a7b:	0f 29 85 90 fd ff ff 	movaps %xmm0,-0x270(%rbp)
    5a82:	0f 29 8d a0 fd ff ff 	movaps %xmm1,-0x260(%rbp)
    5a89:	f3 0f 6f 83 e0 31 00 	movdqu 0x31e0(%rbx),%xmm0
    5a90:	00 
    5a91:	f3 0f 6f 8b f0 31 00 	movdqu 0x31f0(%rbx),%xmm1
    5a98:	00 
    5a99:	66 0f 7f 85 b0 fd ff 	movdqa %xmm0,-0x250(%rbp)
    5aa0:	ff 
    5aa1:	66 0f 7f 8d c0 fd ff 	movdqa %xmm1,-0x240(%rbp)
    5aa8:	ff 
    5aa9:	48 8d b5 d8 fb ff ff 	lea    -0x428(%rbp),%rsi
    5ab0:	31 d2                	xor    %edx,%edx
    5ab2:	eb 16                	jmp    5aca <m16_read_file+0xa0a>
    5ab4:	48 ff c2             	inc    %rdx
    5ab7:	48 83 c6 28          	add    $0x28,%rsi
    5abb:	b8 fb ff ff ff       	mov    $0xfffffffb,%eax
    5ac0:	48 83 fa 0c          	cmp    $0xc,%rdx
    5ac4:	0f 84 68 f6 ff ff    	je     5132 <m16_read_file+0x72>
    5aca:	48 8d 04 92          	lea    (%rdx,%rdx,4),%rax
    5ace:	83 bc c5 d0 fb ff ff 	cmpl   $0x0,-0x430(%rbp,%rax,8)
    5ad5:	00 
    5ad6:	74 dc                	je     5ab4 <m16_read_file+0x9f4>
    5ad8:	31 c0                	xor    %eax,%eax
    5ada:	0f b6 3c 06          	movzbl (%rsi,%rax,1),%edi
    5ade:	41 3a 3c 04          	cmp    (%r12,%rax,1),%dil
    5ae2:	75 d0                	jne    5ab4 <m16_read_file+0x9f4>
    5ae4:	40 84 ff             	test   %dil,%dil
    5ae7:	74 0d                	je     5af6 <m16_read_file+0xa36>
    5ae9:	48 8d 78 01          	lea    0x1(%rax),%rdi
    5aed:	48 83 f8 1f          	cmp    $0x1f,%rax
    5af1:	48 89 f8             	mov    %rdi,%rax
    5af4:	75 e4                	jne    5ada <m16_read_file+0xa1a>
    5af6:	89 d0                	mov    %edx,%eax
    5af8:	85 d2                	test   %edx,%edx
    5afa:	0f 88 32 f6 ff ff    	js     5132 <m16_read_file+0x72>
    5b00:	89 d0                	mov    %edx,%eax
    5b02:	48 8d 04 80          	lea    (%rax,%rax,4),%rax
    5b06:	8b b4 c5 d4 fb ff ff 	mov    -0x42c(%rbp,%rax,8),%esi
    5b0d:	b8 fa ff ff ff       	mov    $0xfffffffa,%eax
    5b12:	48 83 fe 0f          	cmp    $0xf,%rsi
    5b16:	0f 87 16 f6 ff ff    	ja     5132 <m16_read_file+0x72>
    5b1c:	48 c1 e6 07          	shl    $0x7,%rsi
    5b20:	83 bc 35 d0 f3 ff ff 	cmpl   $0x0,-0xc30(%rbp,%rsi,1)
    5b27:	00 
    5b28:	0f 84 04 f6 ff ff    	je     5132 <m16_read_file+0x72>
    5b2e:	83 bc 35 d4 f3 ff ff 	cmpl   $0x1,-0xc2c(%rbp,%rsi,1)
    5b35:	01 
    5b36:	0f 85 f6 f5 ff ff    	jne    5132 <m16_read_file+0x72>
    5b3c:	8b 94 35 d8 f3 ff ff 	mov    -0xc28(%rbp,%rsi,1),%edx
    5b43:	44 39 ea             	cmp    %r13d,%edx
    5b46:	0f 87 8f fd ff ff    	ja     58db <m16_read_file+0x81b>
    5b4c:	8b b4 35 dc f3 ff ff 	mov    -0xc24(%rbp,%rsi,1),%esi
    5b53:	b8 ff ff ff ff       	mov    $0xffffffff,%eax
    5b58:	39 ce                	cmp    %ecx,%esi
    5b5a:	0f 83 d2 f5 ff ff    	jae    5132 <m16_read_file+0x72>
    5b60:	83 fe 7f             	cmp    $0x7f,%esi
    5b63:	0f 87 c9 f5 ff ff    	ja     5132 <m16_read_file+0x72>
    5b69:	48 c1 e6 09          	shl    $0x9,%rsi
    5b6d:	0f 10 04 33          	movups (%rbx,%rsi,1),%xmm0
    5b71:	0f 10 4c 33 10       	movups 0x10(%rbx,%rsi,1),%xmm1
    5b76:	0f 29 85 d0 fd ff ff 	movaps %xmm0,-0x230(%rbp)
    5b7d:	0f 29 8d e0 fd ff ff 	movaps %xmm1,-0x220(%rbp)
    5b84:	0f 10 44 33 20       	movups 0x20(%rbx,%rsi,1),%xmm0
    5b89:	0f 10 4c 33 30       	movups 0x30(%rbx,%rsi,1),%xmm1
    5b8e:	0f 29 85 f0 fd ff ff 	movaps %xmm0,-0x210(%rbp)
    5b95:	0f 29 8d 00 fe ff ff 	movaps %xmm1,-0x200(%rbp)
    5b9c:	0f 10 44 33 40       	movups 0x40(%rbx,%rsi,1),%xmm0
    5ba1:	0f 10 4c 33 50       	movups 0x50(%rbx,%rsi,1),%xmm1
    5ba6:	0f 29 85 10 fe ff ff 	movaps %xmm0,-0x1f0(%rbp)
    5bad:	0f 29 8d 20 fe ff ff 	movaps %xmm1,-0x1e0(%rbp)
    5bb4:	0f 10 44 33 60       	movups 0x60(%rbx,%rsi,1),%xmm0
    5bb9:	0f 10 4c 33 70       	movups 0x70(%rbx,%rsi,1),%xmm1
    5bbe:	0f 29 85 30 fe ff ff 	movaps %xmm0,-0x1d0(%rbp)
    5bc5:	0f 29 8d 40 fe ff ff 	movaps %xmm1,-0x1c0(%rbp)
    5bcc:	0f 10 84 33 80 00 00 	movups 0x80(%rbx,%rsi,1),%xmm0
    5bd3:	00 
    5bd4:	0f 10 8c 33 90 00 00 	movups 0x90(%rbx,%rsi,1),%xmm1
    5bdb:	00 
    5bdc:	0f 29 85 50 fe ff ff 	movaps %xmm0,-0x1b0(%rbp)
    5be3:	0f 29 8d 60 fe ff ff 	movaps %xmm1,-0x1a0(%rbp)
    5bea:	0f 10 84 33 a0 00 00 	movups 0xa0(%rbx,%rsi,1),%xmm0
    5bf1:	00 
    5bf2:	0f 10 8c 33 b0 00 00 	movups 0xb0(%rbx,%rsi,1),%xmm1
    5bf9:	00 
    5bfa:	0f 29 85 70 fe ff ff 	movaps %xmm0,-0x190(%rbp)
    5c01:	0f 29 8d 80 fe ff ff 	movaps %xmm1,-0x180(%rbp)
    5c08:	0f 10 84 33 c0 00 00 	movups 0xc0(%rbx,%rsi,1),%xmm0
    5c0f:	00 
    5c10:	0f 10 8c 33 d0 00 00 	movups 0xd0(%rbx,%rsi,1),%xmm1
    5c17:	00 
    5c18:	0f 29 85 90 fe ff ff 	movaps %xmm0,-0x170(%rbp)
    5c1f:	0f 29 8d a0 fe ff ff 	movaps %xmm1,-0x160(%rbp)
    5c26:	0f 10 84 33 e0 00 00 	movups 0xe0(%rbx,%rsi,1),%xmm0
    5c2d:	00 
    5c2e:	0f 10 8c 33 f0 00 00 	movups 0xf0(%rbx,%rsi,1),%xmm1
    5c35:	00 
    5c36:	0f 29 85 b0 fe ff ff 	movaps %xmm0,-0x150(%rbp)
    5c3d:	0f 29 8d c0 fe ff ff 	movaps %xmm1,-0x140(%rbp)
    5c44:	0f 10 84 33 00 01 00 	movups 0x100(%rbx,%rsi,1),%xmm0
    5c4b:	00 
    5c4c:	0f 10 8c 33 10 01 00 	movups 0x110(%rbx,%rsi,1),%xmm1
    5c53:	00 
    5c54:	0f 29 85 d0 fe ff ff 	movaps %xmm0,-0x130(%rbp)
    5c5b:	0f 29 8d e0 fe ff ff 	movaps %xmm1,-0x120(%rbp)
    5c62:	0f 10 84 33 20 01 00 	movups 0x120(%rbx,%rsi,1),%xmm0
    5c69:	00 
    5c6a:	0f 10 8c 33 30 01 00 	movups 0x130(%rbx,%rsi,1),%xmm1
    5c71:	00 
    5c72:	0f 29 85 f0 fe ff ff 	movaps %xmm0,-0x110(%rbp)
    5c79:	0f 29 8d 00 ff ff ff 	movaps %xmm1,-0x100(%rbp)
    5c80:	0f 10 84 33 40 01 00 	movups 0x140(%rbx,%rsi,1),%xmm0
    5c87:	00 
    5c88:	0f 10 8c 33 50 01 00 	movups 0x150(%rbx,%rsi,1),%xmm1
    5c8f:	00 
    5c90:	0f 29 85 10 ff ff ff 	movaps %xmm0,-0xf0(%rbp)
    5c97:	0f 29 8d 20 ff ff ff 	movaps %xmm1,-0xe0(%rbp)
    5c9e:	0f 10 84 33 60 01 00 	movups 0x160(%rbx,%rsi,1),%xmm0
    5ca5:	00 
    5ca6:	0f 10 8c 33 70 01 00 	movups 0x170(%rbx,%rsi,1),%xmm1
    5cad:	00 
    5cae:	0f 29 85 30 ff ff ff 	movaps %xmm0,-0xd0(%rbp)
    5cb5:	0f 29 8d 40 ff ff ff 	movaps %xmm1,-0xc0(%rbp)
    5cbc:	0f 10 84 33 80 01 00 	movups 0x180(%rbx,%rsi,1),%xmm0
    5cc3:	00 
    5cc4:	0f 10 8c 33 90 01 00 	movups 0x190(%rbx,%rsi,1),%xmm1
    5ccb:	00 
    5ccc:	0f 29 85 50 ff ff ff 	movaps %xmm0,-0xb0(%rbp)
    5cd3:	0f 29 8d 60 ff ff ff 	movaps %xmm1,-0xa0(%rbp)
    5cda:	0f 10 84 33 a0 01 00 	movups 0x1a0(%rbx,%rsi,1),%xmm0
    5ce1:	00 
    5ce2:	0f 10 8c 33 b0 01 00 	movups 0x1b0(%rbx,%rsi,1),%xmm1
    5ce9:	00 
    5cea:	0f 29 85 70 ff ff ff 	movaps %xmm0,-0x90(%rbp)
    5cf1:	0f 29 4d 80          	movaps %xmm1,-0x80(%rbp)
    5cf5:	0f 10 84 33 c0 01 00 	movups 0x1c0(%rbx,%rsi,1),%xmm0
    5cfc:	00 
    5cfd:	0f 10 8c 33 d0 01 00 	movups 0x1d0(%rbx,%rsi,1),%xmm1
    5d04:	00 
    5d05:	0f 29 45 90          	movaps %xmm0,-0x70(%rbp)
    5d09:	0f 29 4d a0          	movaps %xmm1,-0x60(%rbp)
    5d0d:	f3 0f 6f 84 33 e0 01 	movdqu 0x1e0(%rbx,%rsi,1),%xmm0
    5d14:	00 00 
    5d16:	f3 0f 6f 8c 33 f0 01 	movdqu 0x1f0(%rbx,%rsi,1),%xmm1
    5d1d:	00 00 
    5d1f:	66 0f 7f 45 b0       	movdqa %xmm0,-0x50(%rbp)
    5d24:	66 0f 7f 4d c0       	movdqa %xmm1,-0x40(%rbp)
    5d29:	85 d2                	test   %edx,%edx
    5d2b:	0f 84 81 00 00 00    	je     5db2 <m16_read_file+0xcf2>
    5d31:	83 fa 08             	cmp    $0x8,%edx
    5d34:	73 04                	jae    5d3a <m16_read_file+0xc7a>
    5d36:	31 c0                	xor    %eax,%eax
    5d38:	eb 64                	jmp    5d9e <m16_read_file+0xcde>
    5d3a:	83 fa 20             	cmp    $0x20,%edx
    5d3d:	73 04                	jae    5d43 <m16_read_file+0xc83>
    5d3f:	31 c0                	xor    %eax,%eax
    5d41:	eb 39                	jmp    5d7c <m16_read_file+0xcbc>
    5d43:	89 d0                	mov    %edx,%eax
    5d45:	83 e0 e0             	and    $0xffffffe0,%eax
    5d48:	31 c9                	xor    %ecx,%ecx
    5d4a:	66 0f 6f 84 0d d0 fd 	movdqa -0x230(%rbp,%rcx,1),%xmm0
    5d51:	ff ff 
    5d53:	66 0f 6f 8c 0d e0 fd 	movdqa -0x220(%rbp,%rcx,1),%xmm1
    5d5a:	ff ff 
    5d5c:	f3 41 0f 7f 04 0f    	movdqu %xmm0,(%r15,%rcx,1)
    5d62:	f3 41 0f 7f 4c 0f 10 	movdqu %xmm1,0x10(%r15,%rcx,1)
    5d69:	48 83 c1 20          	add    $0x20,%rcx
    5d6d:	48 39 c8             	cmp    %rcx,%rax
    5d70:	75 d8                	jne    5d4a <m16_read_file+0xc8a>
    5d72:	48 39 d0             	cmp    %rdx,%rax
    5d75:	74 3b                	je     5db2 <m16_read_file+0xcf2>
    5d77:	f6 c2 18             	test   $0x18,%dl
    5d7a:	74 22                	je     5d9e <m16_read_file+0xcde>
    5d7c:	48 89 c1             	mov    %rax,%rcx
    5d7f:	89 d0                	mov    %edx,%eax
    5d81:	83 e0 f8             	and    $0xfffffff8,%eax
    5d84:	48 8b b4 0d d0 fd ff 	mov    -0x230(%rbp,%rcx,1),%rsi
    5d8b:	ff 
    5d8c:	49 89 34 0f          	mov    %rsi,(%r15,%rcx,1)
    5d90:	48 83 c1 08          	add    $0x8,%rcx
    5d94:	48 39 c8             	cmp    %rcx,%rax
    5d97:	75 eb                	jne    5d84 <m16_read_file+0xcc4>
    5d99:	48 39 d0             	cmp    %rdx,%rax
    5d9c:	74 14                	je     5db2 <m16_read_file+0xcf2>
    5d9e:	0f b6 8c 05 d0 fd ff 	movzbl -0x230(%rbp,%rax,1),%ecx
    5da5:	ff 
    5da6:	41 88 0c 07          	mov    %cl,(%r15,%rax,1)
    5daa:	48 ff c0             	inc    %rax
    5dad:	48 39 c2             	cmp    %rax,%rdx
    5db0:	75 ec                	jne    5d9e <m16_read_file+0xcde>
    5db2:	41 89 16             	mov    %edx,(%r14)
    5db5:	31 c0                	xor    %eax,%eax
    5db7:	e9 76 f3 ff ff       	jmp    5132 <m16_read_file+0x72>
    5dbc:	0f 1f 40 00          	nopl   0x0(%rax)

0000000000005dc0 <m16_fsck>:
    5dc0:	b8 ff ff ff ff       	mov    $0xffffffff,%eax
    5dc5:	48 85 ff             	test   %rdi,%rdi
    5dc8:	74 21                	je     5deb <m16_fsck+0x2b>
    5dca:	55                   	push   %rbp
    5dcb:	48 89 e5             	mov    %rsp,%rbp
    5dce:	53                   	push   %rbx
    5dcf:	48 81 ec 08 0e 00 00 	sub    $0xe08,%rsp
    5dd6:	48 89 fb             	mov    %rdi,%rbx
    5dd9:	e8 00 00 00 00       	call   5dde <m16_fsck+0x1e>
			5dda: R_X86_64_PLT32	m16_journal_recover-0x4
    5dde:	85 c0                	test   %eax,%eax
    5de0:	74 0a                	je     5dec <m16_fsck+0x2c>
    5de2:	48 81 c4 08 0e 00 00 	add    $0xe08,%rsp
    5de9:	5b                   	pop    %rbx
    5dea:	5d                   	pop    %rbp
    5deb:	c3                   	ret
    5dec:	8b 8b 00 00 01 00    	mov    0x10000(%rbx),%ecx
    5df2:	b8 ff ff ff ff       	mov    $0xffffffff,%eax
    5df7:	85 c9                	test   %ecx,%ecx
    5df9:	74 e7                	je     5de2 <m16_fsck+0x22>
    5dfb:	f3 0f 6f 03          	movdqu (%rbx),%xmm0
    5dff:	66 48 0f 7e c2       	movq   %xmm0,%rdx
    5e04:	48 be 31 4a 56 31 46 	movabs $0x4d43534631564a31,%rsi
    5e0b:	53 43 4d 
    5e0e:	b8 fa ff ff ff       	mov    $0xfffffffa,%eax
    5e13:	48 39 f2             	cmp    %rsi,%rdx
    5e16:	75 ca                	jne    5de2 <m16_fsck+0x22>
    5e18:	66 0f 70 c8 ee       	pshufd $0xee,%xmm0,%xmm1
    5e1d:	66 0f 7e ca          	movd   %xmm1,%edx
    5e21:	83 fa 01             	cmp    $0x1,%edx
    5e24:	75 bc                	jne    5de2 <m16_fsck+0x22>
    5e26:	66 0f 70 c0 ff       	pshufd $0xff,%xmm0,%xmm0
    5e2b:	66 0f 7e c2          	movd   %xmm0,%edx
    5e2f:	81 fa 00 02 00 00    	cmp    $0x200,%edx
    5e35:	75 ab                	jne    5de2 <m16_fsck+0x22>
    5e37:	83 7b 30 19          	cmpl   $0x19,0x30(%rbx)
    5e3b:	75 a5                	jne    5de2 <m16_fsck+0x22>
    5e3d:	f3 0f 6f 43 20       	movdqu 0x20(%rbx),%xmm0
    5e42:	66 0f 70 c0 ff       	pshufd $0xff,%xmm0,%xmm0
    5e47:	66 0f 7e c2          	movd   %xmm0,%edx
    5e4b:	83 fa 18             	cmp    $0x18,%edx
    5e4e:	75 92                	jne    5de2 <m16_fsck+0x22>
    5e50:	b8 ff ff ff ff       	mov    $0xffffffff,%eax
    5e55:	83 f9 13             	cmp    $0x13,%ecx
    5e58:	72 88                	jb     5de2 <m16_fsck+0x22>
    5e5a:	0f 10 83 00 24 00 00 	movups 0x2400(%rbx),%xmm0
    5e61:	0f 10 8b 10 24 00 00 	movups 0x2410(%rbx),%xmm1
    5e68:	0f 29 85 f0 f9 ff ff 	movaps %xmm0,-0x610(%rbp)
    5e6f:	0f 29 8d 00 fa ff ff 	movaps %xmm1,-0x600(%rbp)
    5e76:	0f 10 83 20 24 00 00 	movups 0x2420(%rbx),%xmm0
    5e7d:	0f 10 8b 30 24 00 00 	movups 0x2430(%rbx),%xmm1
    5e84:	0f 29 85 10 fa ff ff 	movaps %xmm0,-0x5f0(%rbp)
    5e8b:	0f 29 8d 20 fa ff ff 	movaps %xmm1,-0x5e0(%rbp)
    5e92:	0f 10 83 40 24 00 00 	movups 0x2440(%rbx),%xmm0
    5e99:	0f 10 8b 50 24 00 00 	movups 0x2450(%rbx),%xmm1
    5ea0:	0f 29 85 30 fa ff ff 	movaps %xmm0,-0x5d0(%rbp)
    5ea7:	0f 29 8d 40 fa ff ff 	movaps %xmm1,-0x5c0(%rbp)
    5eae:	0f 10 83 60 24 00 00 	movups 0x2460(%rbx),%xmm0
    5eb5:	0f 10 8b 70 24 00 00 	movups 0x2470(%rbx),%xmm1
    5ebc:	0f 29 85 50 fa ff ff 	movaps %xmm0,-0x5b0(%rbp)
    5ec3:	0f 29 8d 60 fa ff ff 	movaps %xmm1,-0x5a0(%rbp)
    5eca:	0f 10 83 80 24 00 00 	movups 0x2480(%rbx),%xmm0
    5ed1:	0f 10 8b 90 24 00 00 	movups 0x2490(%rbx),%xmm1
    5ed8:	0f 29 85 70 fa ff ff 	movaps %xmm0,-0x590(%rbp)
    5edf:	0f 29 8d 80 fa ff ff 	movaps %xmm1,-0x580(%rbp)
    5ee6:	0f 10 83 a0 24 00 00 	movups 0x24a0(%rbx),%xmm0
    5eed:	0f 10 8b b0 24 00 00 	movups 0x24b0(%rbx),%xmm1
    5ef4:	0f 29 85 90 fa ff ff 	movaps %xmm0,-0x570(%rbp)
    5efb:	0f 29 8d a0 fa ff ff 	movaps %xmm1,-0x560(%rbp)
    5f02:	0f 10 83 c0 24 00 00 	movups 0x24c0(%rbx),%xmm0
    5f09:	0f 10 8b d0 24 00 00 	movups 0x24d0(%rbx),%xmm1
    5f10:	0f 29 85 b0 fa ff ff 	movaps %xmm0,-0x550(%rbp)
    5f17:	0f 29 8d c0 fa ff ff 	movaps %xmm1,-0x540(%rbp)
    5f1e:	0f 10 83 e0 24 00 00 	movups 0x24e0(%rbx),%xmm0
    5f25:	0f 10 8b f0 24 00 00 	movups 0x24f0(%rbx),%xmm1
    5f2c:	0f 29 85 d0 fa ff ff 	movaps %xmm0,-0x530(%rbp)
    5f33:	0f 29 8d e0 fa ff ff 	movaps %xmm1,-0x520(%rbp)
    5f3a:	0f 10 83 00 25 00 00 	movups 0x2500(%rbx),%xmm0
    5f41:	0f 10 8b 10 25 00 00 	movups 0x2510(%rbx),%xmm1
    5f48:	0f 29 85 f0 fa ff ff 	movaps %xmm0,-0x510(%rbp)
    5f4f:	0f 29 8d 00 fb ff ff 	movaps %xmm1,-0x500(%rbp)
    5f56:	0f 10 83 20 25 00 00 	movups 0x2520(%rbx),%xmm0
    5f5d:	0f 10 8b 30 25 00 00 	movups 0x2530(%rbx),%xmm1
    5f64:	0f 29 85 10 fb ff ff 	movaps %xmm0,-0x4f0(%rbp)
    5f6b:	0f 29 8d 20 fb ff ff 	movaps %xmm1,-0x4e0(%rbp)
    5f72:	0f 10 83 40 25 00 00 	movups 0x2540(%rbx),%xmm0
    5f79:	0f 10 8b 50 25 00 00 	movups 0x2550(%rbx),%xmm1
    5f80:	0f 29 85 30 fb ff ff 	movaps %xmm0,-0x4d0(%rbp)
    5f87:	0f 29 8d 40 fb ff ff 	movaps %xmm1,-0x4c0(%rbp)
    5f8e:	0f 10 83 60 25 00 00 	movups 0x2560(%rbx),%xmm0
    5f95:	0f 10 8b 70 25 00 00 	movups 0x2570(%rbx),%xmm1
    5f9c:	0f 29 85 50 fb ff ff 	movaps %xmm0,-0x4b0(%rbp)
    5fa3:	0f 29 8d 60 fb ff ff 	movaps %xmm1,-0x4a0(%rbp)
    5faa:	0f 10 83 80 25 00 00 	movups 0x2580(%rbx),%xmm0
    5fb1:	0f 10 8b 90 25 00 00 	movups 0x2590(%rbx),%xmm1
    5fb8:	0f 29 85 70 fb ff ff 	movaps %xmm0,-0x490(%rbp)
    5fbf:	0f 29 8d 80 fb ff ff 	movaps %xmm1,-0x480(%rbp)
    5fc6:	0f 10 83 a0 25 00 00 	movups 0x25a0(%rbx),%xmm0
    5fcd:	0f 10 8b b0 25 00 00 	movups 0x25b0(%rbx),%xmm1
    5fd4:	0f 29 85 90 fb ff ff 	movaps %xmm0,-0x470(%rbp)
    5fdb:	0f 29 8d a0 fb ff ff 	movaps %xmm1,-0x460(%rbp)
    5fe2:	0f 10 83 c0 25 00 00 	movups 0x25c0(%rbx),%xmm0
    5fe9:	0f 10 8b d0 25 00 00 	movups 0x25d0(%rbx),%xmm1
    5ff0:	0f 29 85 b0 fb ff ff 	movaps %xmm0,-0x450(%rbp)
    5ff7:	0f 29 8d c0 fb ff ff 	movaps %xmm1,-0x440(%rbp)
    5ffe:	f3 0f 6f 83 e0 25 00 	movdqu 0x25e0(%rbx),%xmm0
    6005:	00 
    6006:	f3 0f 6f 8b f0 25 00 	movdqu 0x25f0(%rbx),%xmm1
    600d:	00 
    600e:	66 0f 7f 85 d0 fb ff 	movdqa %xmm0,-0x430(%rbp)
    6015:	ff 
    6016:	66 0f 7f 8d e0 fb ff 	movdqa %xmm1,-0x420(%rbp)
    601d:	ff 
    601e:	0f 84 be fd ff ff    	je     5de2 <m16_fsck+0x22>
    6024:	0f 10 83 00 26 00 00 	movups 0x2600(%rbx),%xmm0
    602b:	0f 10 8b 10 26 00 00 	movups 0x2610(%rbx),%xmm1
    6032:	0f 29 85 f0 fd ff ff 	movaps %xmm0,-0x210(%rbp)
    6039:	0f 29 8d 00 fe ff ff 	movaps %xmm1,-0x200(%rbp)
    6040:	0f 10 83 20 26 00 00 	movups 0x2620(%rbx),%xmm0
    6047:	0f 10 8b 30 26 00 00 	movups 0x2630(%rbx),%xmm1
    604e:	0f 29 85 10 fe ff ff 	movaps %xmm0,-0x1f0(%rbp)
    6055:	0f 29 8d 20 fe ff ff 	movaps %xmm1,-0x1e0(%rbp)
    605c:	0f 10 83 40 26 00 00 	movups 0x2640(%rbx),%xmm0
    6063:	0f 10 8b 50 26 00 00 	movups 0x2650(%rbx),%xmm1
    606a:	0f 29 85 30 fe ff ff 	movaps %xmm0,-0x1d0(%rbp)
    6071:	0f 29 8d 40 fe ff ff 	movaps %xmm1,-0x1c0(%rbp)
    6078:	0f 10 83 60 26 00 00 	movups 0x2660(%rbx),%xmm0
    607f:	0f 10 8b 70 26 00 00 	movups 0x2670(%rbx),%xmm1
    6086:	0f 29 85 50 fe ff ff 	movaps %xmm0,-0x1b0(%rbp)
    608d:	0f 29 8d 60 fe ff ff 	movaps %xmm1,-0x1a0(%rbp)
    6094:	0f 10 83 80 26 00 00 	movups 0x2680(%rbx),%xmm0
    609b:	0f 10 8b 90 26 00 00 	movups 0x2690(%rbx),%xmm1
    60a2:	0f 29 85 70 fe ff ff 	movaps %xmm0,-0x190(%rbp)
    60a9:	0f 29 8d 80 fe ff ff 	movaps %xmm1,-0x180(%rbp)
    60b0:	0f 10 83 a0 26 00 00 	movups 0x26a0(%rbx),%xmm0
    60b7:	0f 10 8b b0 26 00 00 	movups 0x26b0(%rbx),%xmm1
    60be:	0f 29 85 90 fe ff ff 	movaps %xmm0,-0x170(%rbp)
    60c5:	0f 29 8d a0 fe ff ff 	movaps %xmm1,-0x160(%rbp)
    60cc:	0f 10 83 c0 26 00 00 	movups 0x26c0(%rbx),%xmm0
    60d3:	0f 10 8b d0 26 00 00 	movups 0x26d0(%rbx),%xmm1
    60da:	0f 29 85 b0 fe ff ff 	movaps %xmm0,-0x150(%rbp)
    60e1:	0f 29 8d c0 fe ff ff 	movaps %xmm1,-0x140(%rbp)
    60e8:	0f 10 83 e0 26 00 00 	movups 0x26e0(%rbx),%xmm0
    60ef:	0f 10 8b f0 26 00 00 	movups 0x26f0(%rbx),%xmm1
    60f6:	0f 29 85 d0 fe ff ff 	movaps %xmm0,-0x130(%rbp)
    60fd:	0f 29 8d e0 fe ff ff 	movaps %xmm1,-0x120(%rbp)
